(dp0
S'results'
p1
(lp2
(lp3
F9.279e-05
aa(lp4
F3.767e-05
aa(lp5
F7.101e-05
aa(lp6
F6.236e-05
aa(lp7
F7.344e-05
aa(lp8
F0.00019071
aa(lp9
F2.102e-05
aa(lp10
F0.00011257
aa(lp11
F0.0001898
aa(lp12
F8.738e-05
aa(lp13
F0.00012463
aa(lp14
F9.284e-05
aa(lp15
F0.00014488
aa(lp16
F2.22e-06
aa(lp17
F8.27e-06
aa(lp18
F0.00012867
aa(lp19
F0.00014137
aa(lp20
F0.00012202
aa(lp21
F9.36e-05
aa(lp22
F9.571e-05
aa(lp23
F0.00012283
aa(lp24
F0.00010716
aa(lp25
F0.00018195
aa(lp26
F6.901e-05
aa(lp27
F0.00018818
aa(lp28
F0.00011656
aa(lp29
F0.00011672
aa(lp30
F0.00015823
aa(lp31
F4.323e-05
aa(lp32
F5.615e-05
aa(lp33
F5.555e-05
aa(lp34
F5.453e-05
aa(lp35
F0.00020309
aa(lp36
F3.891e-05
aa(lp37
F7.555e-05
aa(lp38
F0.00015515
aa(lp39
F9.014e-05
aa(lp40
F7.074e-05
aa(lp41
F0.00012023
aa(lp42
F2.853e-05
aa(lp43
F3.729e-05
aa(lp44
F0.00010143
aa(lp45
F8.684e-05
aa(lp46
F0.00013299
aa(lp47
F2.47e-05
aa(lp48
F3.442e-05
aa(lp49
F0.00019584
aa(lp50
F0.00011527
aa(lp51
F1.535e-05
aa(lp52
F0.00017007
aa(lp53
F0.00013461
aa(lp54
F0.00012402
aa(lp55
F0.00022019
aa(lp56
F0.00015844
aa(lp57
F8.976e-05
aa(lp58
F0.00018715
aa(lp59
F0.00011845
aa(lp60
F4.831e-05
aa(lp61
F0.00011056
aa(lp62
F0.00018266
aa(lp63
F2.702e-05
aa(lp64
F4.76e-06
aa(lp65
F9.549e-05
aa(lp66
F6.59e-06
aa(lp67
F8.474e-05
aa(lp68
F7.458e-05
aa(lp69
F8.046e-05
aa(lp70
F7.409e-05
aa(lp71
F9.462e-05
aa(lp72
F5.658e-05
aa(lp73
F0.00013277
aa(lp74
F3.853e-05
aa(lp75
F0.00018455
aa(lp76
F9.473e-05
aa(lp77
F4.134e-05
aa(lp78
F0.00018288
aa(lp79
F0.00016801
aa(lp80
F0.00021542
aa(lp81
F6.685e-05
aa(lp82
F0.00014396
aa(lp83
F0.00017401
aa(lp84
F0.00013218
aa(lp85
F9.928e-05
aa(lp86
F3.599e-05
aa(lp87
F1.394e-05
aa(lp88
F1.578e-05
aa(lp89
F9.511e-05
aa(lp90
F0.00016401
aa(lp91
F0.00012294
aa(lp92
F5.21e-05
aa(lp93
F0.00015002
aa(lp94
F0.0001731
aa(lp95
F6.528e-05
aa(lp96
F0.00021779
aa(lp97
F6.92e-06
aa(lp98
F0.0001872
aa(lp99
F0.00021892
aa(lp100
F0.00016601
aa(lp101
F9.987e-05
aa(lp102
F0.00011181
aasS'month'
p103
I9
sS'argument tags'
p104
(lp105
S'N'
p106
aS'-'
p107
asS'year'
p108
I2014
sS'arch'
p109
S'x86_64'
p110
sS'day'
p111
I29
sS'result tags'
p112
(lp113
S'Run Time'
p114
asS'arguments'
p115
(lp116
(lp117
I1716
aI1716
aa(lp118
I696
aI696
aa(lp119
I1313
aI1313
aa(lp120
I1153
aI1153
aa(lp121
I1358
aI1358
aa(lp122
I3528
aI3528
aa(lp123
I388
aI388
aa(lp124
I2082
aI2082
aa(lp125
I3511
aI3511
aa(lp126
I1616
aI1616
aa(lp127
I2305
aI2305
aa(lp128
I1717
aI1717
aa(lp129
I2680
aI2680
aa(lp130
I40
aI40
aa(lp131
I152
aI152
aa(lp132
I2380
aI2380
aa(lp133
I2615
aI2615
aa(lp134
I2257
aI2257
aa(lp135
I1731
aI1731
aa(lp136
I1770
aI1770
aa(lp137
I2272
aI2272
aa(lp138
I1982
aI1982
aa(lp139
I3366
aI3366
aa(lp140
I1276
aI1276
aa(lp141
I3481
aI3481
aa(lp142
I2156
aI2156
aa(lp143
I2159
aI2159
aa(lp144
I2927
aI2927
aa(lp145
I799
aI799
aa(lp146
I1038
aI1038
aa(lp147
I1027
aI1027
aa(lp148
I1008
aI1008
aa(lp149
I3757
aI3757
aa(lp150
I719
aI719
aa(lp151
I1397
aI1397
aa(lp152
I2870
aI2870
aa(lp153
I1667
aI1667
aa(lp154
I1308
aI1308
aa(lp155
I2224
aI2224
aa(lp156
I527
aI527
aa(lp157
I689
aI689
aa(lp158
I1876
aI1876
aa(lp159
I1606
aI1606
aa(lp160
I2460
aI2460
aa(lp161
I456
aI456
aa(lp162
I636
aI636
aa(lp163
I3623
aI3623
aa(lp164
I2132
aI2132
aa(lp165
I283
aI283
aa(lp166
I3146
aI3146
aa(lp167
I2490
aI2490
aa(lp168
I2294
aI2294
aa(lp169
I4071
aI4071
aa(lp170
I2931
aI2931
aa(lp171
I1660
aI1660
aa(lp172
I3462
aI3462
aa(lp173
I2191
aI2191
aa(lp174
I893
aI893
aa(lp175
I2045
aI2045
aa(lp176
I3379
aI3379
aa(lp177
I499
aI499
aa(lp178
I87
aI87
aa(lp179
I1766
aI1766
aa(lp180
I121
aI121
aa(lp181
I1567
aI1567
aa(lp182
I1379
aI1379
aa(lp183
I1488
aI1488
aa(lp184
I1370
aI1370
aa(lp185
I1750
aI1750
aa(lp186
I1046
aI1046
aa(lp187
I2456
aI2456
aa(lp188
I712
aI712
aa(lp189
I3414
aI3414
aa(lp190
I1752
aI1752
aa(lp191
I764
aI764
aa(lp192
I3383
aI3383
aa(lp193
I3108
aI3108
aa(lp194
I3985
aI3985
aa(lp195
I1236
aI1236
aa(lp196
I2663
aI2663
aa(lp197
I3219
aI3219
aa(lp198
I2445
aI2445
aa(lp199
I1836
aI1836
aa(lp200
I665
aI665
aa(lp201
I257
aI257
aa(lp202
I291
aI291
aa(lp203
I1759
aI1759
aa(lp204
I3034
aI3034
aa(lp205
I2274
aI2274
aa(lp206
I963
aI963
aa(lp207
I2775
aI2775
aa(lp208
I3202
aI3202
aa(lp209
I1207
aI1207
aa(lp210
I4029
aI4029
aa(lp211
I127
aI127
aa(lp212
I3463
aI3463
aa(lp213
I4050
aI4050
aa(lp214
I3071
aI3071
aa(lp215
I1847
aI1847
aa(lp216
I2068
aI2068
aasS'units'
p217
S'seconds'
p218
sS'identifier'
p219
S'tilera-dot-product'
p220
sS'os'
p221
S'CYGWIN_NT-6.1-1.7.32-0.274-5-3-x86_64-64bit'
p222
s.