(dp0
S'results'
p1
(lp2
(lp3
F0.00074591
aa(lp4
F0.00246033
aa(lp5
F0.00944773
aa(lp6
F0.01391946
aa(lp7
F0.02249995
aa(lp8
F0.02726126
aa(lp9
F0.04156695
aa(lp10
F0.05536215
aa(lp11
F0.06977642
aa(lp12
F0.09716151
aa(lp13
F0.10191659
aa(lp14
F0.12404316
aa(lp15
F0.00118641
aa(lp16
F0.00855547
aa(lp17
F0.01522235
aa(lp18
F0.03049873
aa(lp19
F0.03824724
aa(lp20
F0.06168432
aa(lp21
F0.07961358
aa(lp22
F0.12353184
aa(lp23
F0.17084232
aa(lp24
F0.17774287
aa(lp25
F0.23255207
aa(lp26
F0.24535082
aa(lp27
F0.00253801
aa(lp28
F0.00733511
aa(lp29
F0.03049592
aa(lp30
F0.0507911
aa(lp31
F0.07480607
aa(lp32
F0.11232833
aa(lp33
F0.13715356
aa(lp34
F0.19020937
aa(lp35
F0.25628285
aa(lp36
F0.32329077
aa(lp37
F0.37205515
aa(lp38
F0.42997911
aa(lp39
F0.00294343
aa(lp40
F0.01326415
aa(lp41
F0.04123714
aa(lp42
F0.05598903
aa(lp43
F0.10564331
aa(lp44
F0.151437
aa(lp45
F0.19766315
aa(lp46
F0.27613362
aa(lp47
F0.33767763
aa(lp48
F0.443954
aa(lp49
F0.50482672
aa(lp50
F0.62805243
aa(lp51
F0.00372534
aa(lp52
F0.01784413
aa(lp53
F0.04789284
aa(lp54
F0.06772688
aa(lp55
F0.11728656
aa(lp56
F0.19406567
aa(lp57
F0.27064309
aa(lp58
F0.33897175
aa(lp59
F0.47179068
aa(lp60
F0.52792722
aa(lp61
F0.70254053
aa(lp62
F0.77275518
aa(lp63
F0.0058392
aa(lp64
F0.02016324
aa(lp65
F0.05614235
aa(lp66
F0.08807262
aa(lp67
F0.15675459
aa(lp68
F0.24129393
aa(lp69
F0.33202762
aa(lp70
F0.39518057
aa(lp71
F0.48817265
aa(lp72
F0.62779225
aa(lp73
F0.76128982
aa(lp74
F0.95649319
aa(lp75
F0.00435296
aa(lp76
F0.02672281
aa(lp77
F0.05659434
aa(lp78
F0.10398337
aa(lp79
F0.19792934
aa(lp80
F0.27069184
aa(lp81
F0.37687845
aa(lp82
F0.47666514
aa(lp83
F0.5599115
aa(lp84
F0.72319642
aa(lp85
F0.95840649
aa(lp86
F1.10470458
aa(lp87
F0.00488381
aa(lp88
F0.02520972
aa(lp89
F0.08436455
aa(lp90
F0.11938816
aa(lp91
F0.1940219
aa(lp92
F0.33913959
aa(lp93
F0.3745157
aa(lp94
F0.57023861
aa(lp95
F0.71817815
aa(lp96
F1.01209978
aa(lp97
F1.12807093
aa(lp98
F1.79855763
aa(lp99
F0.00805096
aa(lp100
F0.02798617
aa(lp101
F0.06635729
aa(lp102
F0.13336629
aa(lp103
F0.22961074
aa(lp104
F0.35589204
aa(lp105
F0.4719758
aa(lp106
F0.64893638
aa(lp107
F0.77513923
aa(lp108
F0.95369993
aa(lp109
F1.17865326
aa(lp110
F1.47866266
aa(lp111
F0.00685228
aa(lp112
F0.02597713
aa(lp113
F0.08667581
aa(lp114
F0.16429044
aa(lp115
F0.20574098
aa(lp116
F0.4180749
aa(lp117
F0.5676014
aa(lp118
F0.74100633
aa(lp119
F0.93429131
aa(lp120
F1.17029756
aa(lp121
F1.36482753
aa(lp122
F1.62937706
aa(lp123
F0.00687987
aa(lp124
F0.02251129
aa(lp125
F0.12233382
aa(lp126
F0.21174755
aa(lp127
F0.31188474
aa(lp128
F0.39419763
aa(lp129
F0.6289551
aa(lp130
F0.8045455
aa(lp131
F1.10574638
aa(lp132
F1.27302844
aa(lp133
F1.57272172
aa(lp134
F1.79599696
aa(lp135
F0.00778175
aa(lp136
F0.04045482
aa(lp137
F0.11733518
aa(lp138
F0.20742413
aa(lp139
F0.31856479
aa(lp140
F0.40082996
aa(lp141
F0.67992814
aa(lp142
F0.88098825
aa(lp143
F1.09349317
aa(lp144
F1.4289907
aa(lp145
F1.59194553
aa(lp146
F1.96466553
aa(lp147
F0.55219746
aa(lp148
F0.55889351
aa(lp149
F0.0599118
aa(lp150
F0.26969153
aa(lp151
F0.05237648
aa(lp152
F0.47423532
aa(lp153
F0.0178567
aa(lp154
F0.23936665
aa(lp155
F0.79356266
aa(lp156
F0.49984828
aa(lp157
F0.04673825
aa(lp158
F0.17352555
aa(lp159
F0.05272571
aa(lp160
F0.03052776
aa(lp161
F0.85770154
aa(lp162
F0.19847795
aa(lp163
F1.32555527
aa(lp164
F0.60128847
aa(lp165
F0.00673936
aa(lp166
F0.95957673
aa(lp167
F0.13153931
aa(lp168
F0.10523507
aa(lp169
F1.27461778
aa(lp170
F0.07384141
aa(lp171
F0.44899921
aa(lp172
F0.26911876
aa(lp173
F0.18096415
aa(lp174
F0.23934173
aa(lp175
F0.87565549
aa(lp176
F0.01712166
aa(lp177
F0.00380538
aa(lp178
F0.91345378
aa(lp179
F0.10738747
aa(lp180
F0.3684632
aa(lp181
F0.34395318
aa(lp182
F0.0394373
aa(lp183
F0.29966884
aa(lp184
F0.00379396
aa(lp185
F0.13958114
aa(lp186
F0.07839742
aa(lp187
F0.04902494
aa(lp188
F0.53521847
aa(lp189
F0.01637282
aa(lp190
F0.57942981
aa(lp191
F0.01290515
aa(lp192
F0.09606653
aa(lp193
F1.07301674
aa(lp194
F0.52266876
aa(lp195
F0.76924254
aa(lp196
F0.26558573
aa(lp197
F0.00679323
aa(lp198
F2.36355832
aa(lp199
F0.19030771
aa(lp200
F0.01298943
aa(lp201
F0.05486381
aa(lp202
F0.29930647
aa(lp203
F0.01480611
aa(lp204
F0.0018876
aa(lp205
F0.13376532
aa(lp206
F1.78883907
aa(lp207
F0.87871829
aa(lp208
F0.41294763
aa(lp209
F1.08906795
aa(lp210
F0.46230998
aa(lp211
F0.25428893
aa(lp212
F0.72974537
aa(lp213
F1.34908
aa(lp214
F0.41102994
aa(lp215
F0.10430004
aa(lp216
F0.05213032
aa(lp217
F0.07806293
aa(lp218
F0.09001578
aa(lp219
F0.6511927
aa(lp220
F0.14908738
aa(lp221
F0.21493137
aa(lp222
F0.18136259
aa(lp223
F0.15045213
aa(lp224
F0.00763763
aa(lp225
F1.47426642
aa(lp226
F0.25834253
aa(lp227
F0.25494393
aa(lp228
F0.32931904
aa(lp229
F0.37165134
aa(lp230
F0.02828907
aa(lp231
F0.02397923
aa(lp232
F0.64735891
aa(lp233
F0.0917921
aa(lp234
F0.55780625
aa(lp235
F0.00512315
aa(lp236
F0.3610661
aa(lp237
F0.03644683
aa(lp238
F0.16022212
aa(lp239
F0.74539568
aa(lp240
F0.09567311
aa(lp241
F0.01229717
aa(lp242
F1.19281141
aa(lp243
F0.16710777
aa(lp244
F0.11610969
aa(lp245
F0.65368834
aa(lp246
F0.18139431
aasS'month'
p247
I10
sS'argument tags'
p248
(lp249
S'M'
p250
aS'N'
p251
asS'year'
p252
I2014
sS'arch'
p253
S'x86_64'
p254
sS'day'
p255
I13
sS'result tags'
p256
(lp257
S'Run Time'
p258
asS'arguments'
p259
(lp260
(lp261
cnumpy.core.multiarray
scalar
p262
(cnumpy
dtype
p263
(S'i4'
p264
I0
I1
tp265
Rp266
(I3
S'<'
p267
NNNI-1
I-1
I0
tp268
bS'\x11\x00\x00\x00'
p269
tp270
Rp271
ag262
(g266
S'\x16\x00\x00\x00'
p272
tp273
Rp274
aa(lp275
g262
(g266
S'#\x00\x00\x00'
p276
tp277
Rp278
ag262
(g266
S'\x11\x00\x00\x00'
p279
tp280
Rp281
aa(lp282
g262
(g266
S'A\x00\x00\x00'
p283
tp284
Rp285
ag262
(g266
S'\x13\x00\x00\x00'
p286
tp287
Rp288
aa(lp289
g262
(g266
S'Q\x00\x00\x00'
p290
tp291
Rp292
ag262
(g266
S'\x12\x00\x00\x00'
p293
tp294
Rp295
aa(lp296
g262
(g266
S'm\x00\x00\x00'
p297
tp298
Rp299
ag262
(g266
S'\x10\x00\x00\x00'
p300
tp301
Rp302
aa(lp303
g262
(g266
S'x\x00\x00\x00'
p304
tp305
Rp306
ag262
(g266
S'\x10\x00\x00\x00'
p307
tp308
Rp309
aa(lp310
g262
(g266
S'\x8c\x00\x00\x00'
p311
tp312
Rp313
ag262
(g266
S'\x12\x00\x00\x00'
p314
tp315
Rp316
aa(lp317
g262
(g266
S'\xab\x00\x00\x00'
p318
tp319
Rp320
ag262
(g266
S'\x10\x00\x00\x00'
p321
tp322
Rp323
aa(lp324
g262
(g266
S'\xc0\x00\x00\x00'
p325
tp326
Rp327
ag262
(g266
S'\x10\x00\x00\x00'
p328
tp329
Rp330
aa(lp331
g262
(g266
S'\xd6\x00\x00\x00'
p332
tp333
Rp334
ag262
(g266
S'\x12\x00\x00\x00'
p335
tp336
Rp337
aa(lp338
g262
(g266
S'\xe8\x00\x00\x00'
p339
tp340
Rp341
ag262
(g266
S'\x10\x00\x00\x00'
p342
tp343
Rp344
aa(lp345
g262
(g266
S'\x00\x01\x00\x00'
p346
tp347
Rp348
ag262
(g266
S'\x10\x00\x00\x00'
p349
tp350
Rp351
aa(lp352
g262
(g266
S'\x10\x00\x00\x00'
p353
tp354
Rp355
ag262
(g266
S'(\x00\x00\x00'
p356
tp357
Rp358
aa(lp359
g262
(g266
S')\x00\x00\x00'
p360
tp361
Rp362
ag262
(g266
S',\x00\x00\x00'
p363
tp364
Rp365
aa(lp366
g262
(g266
S'?\x00\x00\x00'
p367
tp368
Rp369
ag262
(g266
S'!\x00\x00\x00'
p370
tp371
Rp372
aa(lp373
g262
(g266
S'Q\x00\x00\x00'
p374
tp375
Rp376
ag262
(g266
S'(\x00\x00\x00'
p377
tp378
Rp379
aa(lp380
g262
(g266
S'g\x00\x00\x00'
p381
tp382
Rp383
ag262
(g266
S'\x1f\x00\x00\x00'
p384
tp385
Rp386
aa(lp387
g262
(g266
S'}\x00\x00\x00'
p388
tp389
Rp390
ag262
(g266
S'"\x00\x00\x00'
p391
tp392
Rp393
aa(lp394
g262
(g266
S'\x8e\x00\x00\x00'
p395
tp396
Rp397
ag262
(g266
S'"\x00\x00\x00'
p398
tp399
Rp400
aa(lp401
g262
(g266
S'\xac\x00\x00\x00'
p402
tp403
Rp404
ag262
(g266
S'$\x00\x00\x00'
p405
tp406
Rp407
aa(lp408
g262
(g266
S'\xc0\x00\x00\x00'
p409
tp410
Rp411
ag262
(g266
S'(\x00\x00\x00'
p412
tp413
Rp414
aa(lp415
g262
(g266
S'\xd7\x00\x00\x00'
p416
tp417
Rp418
ag262
(g266
S'!\x00\x00\x00'
p419
tp420
Rp421
aa(lp422
g262
(g266
S'\xec\x00\x00\x00'
p423
tp424
Rp425
ag262
(g266
S'$\x00\x00\x00'
p426
tp427
Rp428
aa(lp429
g262
(g266
S'\xfd\x00\x00\x00'
p430
tp431
Rp432
ag262
(g266
S'!\x00\x00\x00'
p433
tp434
Rp435
aa(lp436
g262
(g266
S'\x14\x00\x00\x00'
p437
tp438
Rp439
ag262
(g266
S'7\x00\x00\x00'
p440
tp441
Rp442
aa(lp443
g262
(g266
S'"\x00\x00\x00'
p444
tp445
Rp446
ag262
(g266
S'7\x00\x00\x00'
p447
tp448
Rp449
aa(lp450
g262
(g266
S'A\x00\x00\x00'
p451
tp452
Rp453
ag262
(g266
S'>\x00\x00\x00'
p454
tp455
Rp456
aa(lp457
g262
(g266
S'U\x00\x00\x00'
p458
tp459
Rp460
ag262
(g266
S'=\x00\x00\x00'
p461
tp462
Rp463
aa(lp464
g262
(g266
S'h\x00\x00\x00'
p465
tp466
Rp467
ag262
(g266
S'<\x00\x00\x00'
p468
tp469
Rp470
aa(lp471
g262
(g266
S'{\x00\x00\x00'
p472
tp473
Rp474
ag262
(g266
S'@\x00\x00\x00'
p475
tp476
Rp477
aa(lp478
g262
(g266
S'\x8e\x00\x00\x00'
p479
tp480
Rp481
ag262
(g266
S';\x00\x00\x00'
p482
tp483
Rp484
aa(lp485
g262
(g266
S'\xaa\x00\x00\x00'
p486
tp487
Rp488
ag262
(g266
S'9\x00\x00\x00'
p489
tp490
Rp491
aa(lp492
g262
(g266
S'\xbe\x00\x00\x00'
p493
tp494
Rp495
ag262
(g266
S'=\x00\x00\x00'
p496
tp497
Rp498
aa(lp499
g262
(g266
S'\xda\x00\x00\x00'
p500
tp501
Rp502
ag262
(g266
S';\x00\x00\x00'
p503
tp504
Rp505
aa(lp506
g262
(g266
S'\xe9\x00\x00\x00'
p507
tp508
Rp509
ag262
(g266
S';\x00\x00\x00'
p510
tp511
Rp512
aa(lp513
g262
(g266
S'\xff\x00\x00\x00'
p514
tp515
Rp516
ag262
(g266
S'5\x00\x00\x00'
p517
tp518
Rp519
aa(lp520
g262
(g266
S'\x12\x00\x00\x00'
p521
tp522
Rp523
ag262
(g266
S'O\x00\x00\x00'
p524
tp525
Rp526
aa(lp527
g262
(g266
S'%\x00\x00\x00'
p528
tp529
Rp530
ag262
(g266
S'T\x00\x00\x00'
p531
tp532
Rp533
aa(lp534
g262
(g266
S'A\x00\x00\x00'
p535
tp536
Rp537
ag262
(g266
S'Q\x00\x00\x00'
p538
tp539
Rp540
aa(lp541
g262
(g266
S'O\x00\x00\x00'
p542
tp543
Rp544
ag262
(g266
S'N\x00\x00\x00'
p545
tp546
Rp547
aa(lp548
g262
(g266
S'i\x00\x00\x00'
p549
tp550
Rp551
ag262
(g266
S'S\x00\x00\x00'
p552
tp553
Rp554
aa(lp555
g262
(g266
S'\x80\x00\x00\x00'
p556
tp557
Rp558
ag262
(g266
S'P\x00\x00\x00'
p559
tp560
Rp561
aa(lp562
g262
(g266
S'\x8f\x00\x00\x00'
p563
tp564
Rp565
ag262
(g266
S'T\x00\x00\x00'
p566
tp567
Rp568
aa(lp569
g262
(g266
S'\xac\x00\x00\x00'
p570
tp571
Rp572
ag262
(g266
S'Q\x00\x00\x00'
p573
tp574
Rp575
aa(lp576
g262
(g266
S'\xbb\x00\x00\x00'
p577
tp578
Rp579
ag262
(g266
S'T\x00\x00\x00'
p580
tp581
Rp582
aa(lp583
g262
(g266
S'\xd3\x00\x00\x00'
p584
tp585
Rp586
ag262
(g266
S'S\x00\x00\x00'
p587
tp588
Rp589
aa(lp590
g262
(g266
S'\xeb\x00\x00\x00'
p591
tp592
Rp593
ag262
(g266
S'O\x00\x00\x00'
p594
tp595
Rp596
aa(lp597
g262
(g266
S'\xfc\x00\x00\x00'
p598
tp599
Rp600
ag262
(g266
S'V\x00\x00\x00'
p601
tp602
Rp603
aa(lp604
g262
(g266
S'\x12\x00\x00\x00'
p605
tp606
Rp607
ag262
(g266
S'd\x00\x00\x00'
p608
tp609
Rp610
aa(lp611
g262
(g266
S'%\x00\x00\x00'
p612
tp613
Rp614
ag262
(g266
S'p\x00\x00\x00'
p615
tp616
Rp617
aa(lp618
g262
(g266
S'<\x00\x00\x00'
p619
tp620
Rp621
ag262
(g266
S'm\x00\x00\x00'
p622
tp623
Rp624
aa(lp625
g262
(g266
S'L\x00\x00\x00'
p626
tp627
Rp628
ag262
(g266
S'f\x00\x00\x00'
p629
tp630
Rp631
aa(lp632
g262
(g266
S'e\x00\x00\x00'
p633
tp634
Rp635
ag262
(g266
S'c\x00\x00\x00'
p636
tp637
Rp638
aa(lp639
g262
(g266
S'\x7f\x00\x00\x00'
p640
tp641
Rp642
ag262
(g266
S'a\x00\x00\x00'
p643
tp644
Rp645
aa(lp646
g262
(g266
S'\x98\x00\x00\x00'
p647
tp648
Rp649
ag262
(g266
S'f\x00\x00\x00'
p650
tp651
Rp652
aa(lp653
g262
(g266
S'\xa4\x00\x00\x00'
p654
tp655
Rp656
ag262
(g266
S'h\x00\x00\x00'
p657
tp658
Rp659
aa(lp660
g262
(g266
S'\xc1\x00\x00\x00'
p661
tp662
Rp663
ag262
(g266
S'n\x00\x00\x00'
p664
tp665
Rp666
aa(lp667
g262
(g266
S'\xd2\x00\x00\x00'
p668
tp669
Rp670
ag262
(g266
S'c\x00\x00\x00'
p671
tp672
Rp673
aa(lp674
g262
(g266
S'\xe8\x00\x00\x00'
p675
tp676
Rp677
ag262
(g266
S'k\x00\x00\x00'
p678
tp679
Rp680
aa(lp681
g262
(g266
S'\xfb\x00\x00\x00'
p682
tp683
Rp684
ag262
(g266
S'j\x00\x00\x00'
p685
tp686
Rp687
aa(lp688
g262
(g266
S'\x14\x00\x00\x00'
p689
tp690
Rp691
ag262
(g266
S'\x7f\x00\x00\x00'
p692
tp693
Rp694
aa(lp695
g262
(g266
S'%\x00\x00\x00'
p696
tp697
Rp698
ag262
(g266
S'}\x00\x00\x00'
p699
tp700
Rp701
aa(lp702
g262
(g266
S'>\x00\x00\x00'
p703
tp704
Rp705
ag262
(g266
S'v\x00\x00\x00'
p706
tp707
Rp708
aa(lp709
g262
(g266
S'O\x00\x00\x00'
p710
tp711
Rp712
ag262
(g266
S'{\x00\x00\x00'
p713
tp714
Rp715
aa(lp716
g262
(g266
S'g\x00\x00\x00'
p717
tp718
Rp719
ag262
(g266
S'\x80\x00\x00\x00'
p720
tp721
Rp722
aa(lp723
g262
(g266
S'}\x00\x00\x00'
p724
tp725
Rp726
ag262
(g266
S'\x81\x00\x00\x00'
p727
tp728
Rp729
aa(lp730
g262
(g266
S'\x97\x00\x00\x00'
p731
tp732
Rp733
ag262
(g266
S'}\x00\x00\x00'
p734
tp735
Rp736
aa(lp737
g262
(g266
S'\xa6\x00\x00\x00'
p738
tp739
Rp740
ag262
(g266
S'|\x00\x00\x00'
p741
tp742
Rp743
aa(lp744
g262
(g266
S'\xb8\x00\x00\x00'
p745
tp746
Rp747
ag262
(g266
S'u\x00\x00\x00'
p748
tp749
Rp750
aa(lp751
g262
(g266
S'\xd0\x00\x00\x00'
p752
tp753
Rp754
ag262
(g266
S'w\x00\x00\x00'
p755
tp756
Rp757
aa(lp758
g262
(g266
S'\xea\x00\x00\x00'
p759
tp760
Rp761
ag262
(g266
S'x\x00\x00\x00'
p762
tp763
Rp764
aa(lp765
g262
(g266
S'\x00\x01\x00\x00'
p766
tp767
Rp768
ag262
(g266
S'\x7f\x00\x00\x00'
p769
tp770
Rp771
aa(lp772
g262
(g266
S'\x10\x00\x00\x00'
p773
tp774
Rp775
ag262
(g266
S'\x94\x00\x00\x00'
p776
tp777
Rp778
aa(lp779
g262
(g266
S'(\x00\x00\x00'
p780
tp781
Rp782
ag262
(g266
S'\x90\x00\x00\x00'
p783
tp784
Rp785
aa(lp786
g262
(g266
S'9\x00\x00\x00'
p787
tp788
Rp789
ag262
(g266
S'\x97\x00\x00\x00'
p790
tp791
Rp792
aa(lp793
g262
(g266
S'O\x00\x00\x00'
p794
tp795
Rp796
ag262
(g266
S'\x91\x00\x00\x00'
p797
tp798
Rp799
aa(lp800
g262
(g266
S'h\x00\x00\x00'
p801
tp802
Rp803
ag262
(g266
S'\x99\x00\x00\x00'
p804
tp805
Rp806
aa(lp807
g262
(g266
S'{\x00\x00\x00'
p808
tp809
Rp810
ag262
(g266
S'\x94\x00\x00\x00'
p811
tp812
Rp813
aa(lp814
g262
(g266
S'\x98\x00\x00\x00'
p815
tp816
Rp817
ag262
(g266
S'\x8e\x00\x00\x00'
p818
tp819
Rp820
aa(lp821
g262
(g266
S'\xa3\x00\x00\x00'
p822
tp823
Rp824
ag262
(g266
S'\x93\x00\x00\x00'
p825
tp826
Rp827
aa(lp828
g262
(g266
S'\xb7\x00\x00\x00'
p829
tp830
Rp831
ag262
(g266
S'\x91\x00\x00\x00'
p832
tp833
Rp834
aa(lp835
g262
(g266
S'\xce\x00\x00\x00'
p836
tp837
Rp838
ag262
(g266
S'\x93\x00\x00\x00'
p839
tp840
Rp841
aa(lp842
g262
(g266
S'\xe3\x00\x00\x00'
p843
tp844
Rp845
ag262
(g266
S'\x97\x00\x00\x00'
p846
tp847
Rp848
aa(lp849
g262
(g266
S'\xfb\x00\x00\x00'
p850
tp851
Rp852
ag262
(g266
S'\x95\x00\x00\x00'
p853
tp854
Rp855
aa(lp856
g262
(g266
S'\x10\x00\x00\x00'
p857
tp858
Rp859
ag262
(g266
S'\xa6\x00\x00\x00'
p860
tp861
Rp862
aa(lp863
g262
(g266
S'#\x00\x00\x00'
p864
tp865
Rp866
ag262
(g266
S'\xab\x00\x00\x00'
p867
tp868
Rp869
aa(lp870
g262
(g266
S'@\x00\x00\x00'
p871
tp872
Rp873
ag262
(g266
S'\xa8\x00\x00\x00'
p874
tp875
Rp876
aa(lp877
g262
(g266
S'N\x00\x00\x00'
p878
tp879
Rp880
ag262
(g266
S'\xaa\x00\x00\x00'
p881
tp882
Rp883
aa(lp884
g262
(g266
S'e\x00\x00\x00'
p885
tp886
Rp887
ag262
(g266
S'\xa4\x00\x00\x00'
p888
tp889
Rp890
aa(lp891
g262
(g266
S'\x81\x00\x00\x00'
p892
tp893
Rp894
ag262
(g266
S'\xa9\x00\x00\x00'
p895
tp896
Rp897
aa(lp898
g262
(g266
S'\x8d\x00\x00\x00'
p899
tp900
Rp901
ag262
(g266
S'\xa3\x00\x00\x00'
p902
tp903
Rp904
aa(lp905
g262
(g266
S'\xae\x00\x00\x00'
p906
tp907
Rp908
ag262
(g266
S'\xa3\x00\x00\x00'
p909
tp910
Rp911
aa(lp912
g262
(g266
S'\xc2\x00\x00\x00'
p913
tp914
Rp915
ag262
(g266
S'\xa5\x00\x00\x00'
p916
tp917
Rp918
aa(lp919
g262
(g266
S'\xe0\x00\x00\x00'
p920
tp921
Rp922
ag262
(g266
S'\xae\x00\x00\x00'
p923
tp924
Rp925
aa(lp926
g262
(g266
S'\xe8\x00\x00\x00'
p927
tp928
Rp929
ag262
(g266
S'\xab\x00\x00\x00'
p930
tp931
Rp932
aa(lp933
g262
(g266
S'\xff\x00\x00\x00'
p934
tp935
Rp936
ag262
(g266
S'\xa7\x00\x00\x00'
p937
tp938
Rp939
aa(lp940
g262
(g266
S'\x13\x00\x00\x00'
p941
tp942
Rp943
ag262
(g266
S'\xc1\x00\x00\x00'
p944
tp945
Rp946
aa(lp947
g262
(g266
S'#\x00\x00\x00'
p948
tp949
Rp950
ag262
(g266
S'\xbd\x00\x00\x00'
p951
tp952
Rp953
aa(lp954
g262
(g266
S'7\x00\x00\x00'
p955
tp956
Rp957
ag262
(g266
S'\xbd\x00\x00\x00'
p958
tp959
Rp960
aa(lp961
g262
(g266
S'O\x00\x00\x00'
p962
tp963
Rp964
ag262
(g266
S'\xb8\x00\x00\x00'
p965
tp966
Rp967
aa(lp968
g262
(g266
S'f\x00\x00\x00'
p969
tp970
Rp971
ag262
(g266
S'\xbe\x00\x00\x00'
p972
tp973
Rp974
aa(lp975
g262
(g266
S'{\x00\x00\x00'
p976
tp977
Rp978
ag262
(g266
S'\xc1\x00\x00\x00'
p979
tp980
Rp981
aa(lp982
g262
(g266
S'\x90\x00\x00\x00'
p983
tp984
Rp985
ag262
(g266
S'\xb9\x00\x00\x00'
p986
tp987
Rp988
aa(lp989
g262
(g266
S'\xac\x00\x00\x00'
p990
tp991
Rp992
ag262
(g266
S'\xbc\x00\x00\x00'
p993
tp994
Rp995
aa(lp996
g262
(g266
S'\xbc\x00\x00\x00'
p997
tp998
Rp999
ag262
(g266
S'\xbc\x00\x00\x00'
p1000
tp1001
Rp1002
aa(lp1003
g262
(g266
S'\xcf\x00\x00\x00'
p1004
tp1005
Rp1006
ag262
(g266
S'\xbf\x00\x00\x00'
p1007
tp1008
Rp1009
aa(lp1010
g262
(g266
S'\xe5\x00\x00\x00'
p1011
tp1012
Rp1013
ag262
(g266
S'\xc1\x00\x00\x00'
p1014
tp1015
Rp1016
aa(lp1017
g262
(g266
S'\x00\x01\x00\x00'
p1018
tp1019
Rp1020
ag262
(g266
S'\xc2\x00\x00\x00'
p1021
tp1022
Rp1023
aa(lp1024
g262
(g266
S'\x11\x00\x00\x00'
p1025
tp1026
Rp1027
ag262
(g266
S'\xcd\x00\x00\x00'
p1028
tp1029
Rp1030
aa(lp1031
g262
(g266
S' \x00\x00\x00'
p1032
tp1033
Rp1034
ag262
(g266
S'\xda\x00\x00\x00'
p1035
tp1036
Rp1037
aa(lp1038
g262
(g266
S':\x00\x00\x00'
p1039
tp1040
Rp1041
ag262
(g266
S'\xdd\x00\x00\x00'
p1042
tp1043
Rp1044
aa(lp1045
g262
(g266
S'P\x00\x00\x00'
p1046
tp1047
Rp1048
ag262
(g266
S'\xd0\x00\x00\x00'
p1049
tp1050
Rp1051
aa(lp1052
g262
(g266
S']\x00\x00\x00'
p1053
tp1054
Rp1055
ag262
(g266
S'\xcc\x00\x00\x00'
p1056
tp1057
Rp1058
aa(lp1059
g262
(g266
S'{\x00\x00\x00'
p1060
tp1061
Rp1062
ag262
(g266
S'\xd5\x00\x00\x00'
p1063
tp1064
Rp1065
aa(lp1066
g262
(g266
S'\x99\x00\x00\x00'
p1067
tp1068
Rp1069
ag262
(g266
S'\xd0\x00\x00\x00'
p1070
tp1071
Rp1072
aa(lp1073
g262
(g266
S'\xac\x00\x00\x00'
p1074
tp1075
Rp1076
ag262
(g266
S'\xd5\x00\x00\x00'
p1077
tp1078
Rp1079
aa(lp1080
g262
(g266
S'\xbd\x00\x00\x00'
p1081
tp1082
Rp1083
ag262
(g266
S'\xdc\x00\x00\x00'
p1084
tp1085
Rp1086
aa(lp1087
g262
(g266
S'\xd5\x00\x00\x00'
p1088
tp1089
Rp1090
ag262
(g266
S'\xd2\x00\x00\x00'
p1091
tp1092
Rp1093
aa(lp1094
g262
(g266
S'\xeb\x00\x00\x00'
p1095
tp1096
Rp1097
ag262
(g266
S'\xd4\x00\x00\x00'
p1098
tp1099
Rp1100
aa(lp1101
g262
(g266
S'\x00\x01\x00\x00'
p1102
tp1103
Rp1104
ag262
(g266
S'\xd5\x00\x00\x00'
p1105
tp1106
Rp1107
aa(lp1108
g262
(g266
S'\x10\x00\x00\x00'
p1109
tp1110
Rp1111
ag262
(g266
S'\xe6\x00\x00\x00'
p1112
tp1113
Rp1114
aa(lp1115
g262
(g266
S'\x1d\x00\x00\x00'
p1116
tp1117
Rp1118
ag262
(g266
S'\xe5\x00\x00\x00'
p1119
tp1120
Rp1121
aa(lp1122
g262
(g266
S'A\x00\x00\x00'
p1123
tp1124
Rp1125
ag262
(g266
S'\xeb\x00\x00\x00'
p1126
tp1127
Rp1128
aa(lp1129
g262
(g266
S'W\x00\x00\x00'
p1130
tp1131
Rp1132
ag262
(g266
S'\xef\x00\x00\x00'
p1133
tp1134
Rp1135
aa(lp1136
g262
(g266
S'h\x00\x00\x00'
p1137
tp1138
Rp1139
ag262
(g266
S'\xed\x00\x00\x00'
p1140
tp1141
Rp1142
aa(lp1143
g262
(g266
S'w\x00\x00\x00'
p1144
tp1145
Rp1146
ag262
(g266
S'\xee\x00\x00\x00'
p1147
tp1148
Rp1149
aa(lp1150
g262
(g266
S'\x98\x00\x00\x00'
p1151
tp1152
Rp1153
ag262
(g266
S'\xe8\x00\x00\x00'
p1154
tp1155
Rp1156
aa(lp1157
g262
(g266
S'\xa5\x00\x00\x00'
p1158
tp1159
Rp1160
ag262
(g266
S'\xf0\x00\x00\x00'
p1161
tp1162
Rp1163
aa(lp1164
g262
(g266
S'\xbe\x00\x00\x00'
p1165
tp1166
Rp1167
ag262
(g266
S'\xf7\x00\x00\x00'
p1168
tp1169
Rp1170
aa(lp1171
g262
(g266
S'\xd0\x00\x00\x00'
p1172
tp1173
Rp1174
ag262
(g266
S'\xef\x00\x00\x00'
p1175
tp1176
Rp1177
aa(lp1178
g262
(g266
S'\xec\x00\x00\x00'
p1179
tp1180
Rp1181
ag262
(g266
S'\xec\x00\x00\x00'
p1182
tp1183
Rp1184
aa(lp1185
g262
(g266
S'\xfa\x00\x00\x00'
p1186
tp1187
Rp1188
ag262
(g266
S'\xee\x00\x00\x00'
p1189
tp1190
Rp1191
aa(lp1192
g262
(g266
S'\x10\x00\x00\x00'
p1193
tp1194
Rp1195
ag262
(g266
S'\x00\x01\x00\x00'
p1196
tp1197
Rp1198
aa(lp1199
g262
(g266
S'$\x00\x00\x00'
p1200
tp1201
Rp1202
ag262
(g266
S'\x00\x01\x00\x00'
p1203
tp1204
Rp1205
aa(lp1206
g262
(g266
S'=\x00\x00\x00'
p1207
tp1208
Rp1209
ag262
(g266
S'\x00\x01\x00\x00'
p1210
tp1211
Rp1212
aa(lp1213
g262
(g266
S'Q\x00\x00\x00'
p1214
tp1215
Rp1216
ag262
(g266
S'\x00\x01\x00\x00'
p1217
tp1218
Rp1219
aa(lp1220
g262
(g266
S'g\x00\x00\x00'
p1221
tp1222
Rp1223
ag262
(g266
S'\x00\x01\x00\x00'
p1224
tp1225
Rp1226
aa(lp1227
g262
(g266
S't\x00\x00\x00'
p1228
tp1229
Rp1230
ag262
(g266
S'\xfd\x00\x00\x00'
p1231
tp1232
Rp1233
aa(lp1234
g262
(g266
S'\x96\x00\x00\x00'
p1235
tp1236
Rp1237
ag262
(g266
S'\x00\x01\x00\x00'
p1238
tp1239
Rp1240
aa(lp1241
g262
(g266
S'\xab\x00\x00\x00'
p1242
tp1243
Rp1244
ag262
(g266
S'\x00\x01\x00\x00'
p1245
tp1246
Rp1247
aa(lp1248
g262
(g266
S'\xbc\x00\x00\x00'
p1249
tp1250
Rp1251
ag262
(g266
S'\x00\x01\x00\x00'
p1252
tp1253
Rp1254
aa(lp1255
g262
(g266
S'\xd5\x00\x00\x00'
p1256
tp1257
Rp1258
ag262
(g266
S'\x00\x01\x00\x00'
p1259
tp1260
Rp1261
aa(lp1262
g262
(g266
S'\xe7\x00\x00\x00'
p1263
tp1264
Rp1265
ag262
(g266
S'\xfd\x00\x00\x00'
p1266
tp1267
Rp1268
aa(lp1269
g262
(g266
S'\x00\x01\x00\x00'
p1270
tp1271
Rp1272
ag262
(g266
S'\xff\x00\x00\x00'
p1273
tp1274
Rp1275
aa(lp1276
I255
aI68
aa(lp1277
I136
aI255
aa(lp1278
I46
aI242
aa(lp1279
I103
aI218
aa(lp1280
I47
aI204
aa(lp1281
I134
aI226
aa(lp1282
I47
aI70
aa(lp1283
I135
aI113
aa(lp1284
I223
aI135
aa(lp1285
I156
aI168
aa(lp1286
I157
aI16
aa(lp1287
I114
aI114
aa(lp1288
I58
aI135
aa(lp1289
I54
aI91
aa(lp1290
I207
aI173
aa(lp1291
I158
aI69
aa(lp1292
I224
aI225
aa(lp1293
I196
aI132
aa(lp1294
I49
aI24
aa(lp1295
I197
aI205
aa(lp1296
I159
aI45
aa(lp1297
I67
aI202
aa(lp1298
I246
aI181
aa(lp1299
I112
aI49
aa(lp1300
I137
aI205
aa(lp1301
I112
aI175
aa(lp1302
I81
aI224
aa(lp1303
I203
aI50
aa(lp1304
I178
aI233
aa(lp1305
I55
aI49
aa(lp1306
I17
aI113
aa(lp1307
I239
aI139
aa(lp1308
I90
aI115
aa(lp1309
I178
aI101
aa(lp1310
I203
aI72
aa(lp1311
I46
aI162
aa(lp1312
I136
aI140
aa(lp1313
I31
aI34
aa(lp1314
I93
aI140
aa(lp1315
I88
aI88
aa(lp1316
I95
aI47
aa(lp1317
I155
aI192
aa(lp1318
I93
aI16
aa(lp1319
I231
aI94
aa(lp1320
I21
aI243
aa(lp1321
I127
aI47
aa(lp1322
I202
aI225
aa(lp1323
I136
aI240
aa(lp1324
I182
aI200
aa(lp1325
I160
aI90
aa(lp1326
I18
aI182
aa(lp1327
I254
aI224
aa(lp1328
I94
aI176
aa(lp1329
I27
aI153
aa(lp1330
I45
aI226
aa(lp1331
I109
aI203
aa(lp1332
I36
aI99
aa(lp1333
I16
aI64
aa(lp1334
I86
aI157
aa(lp1335
I243
aI256
aa(lp1336
I213
aI162
aa(lp1337
I223
aI72
aa(lp1338
I241
aI162
aa(lp1339
I174
aI133
aa(lp1340
I221
aI45
aa(lp1341
I163
aI224
aa(lp1342
I242
aI197
aa(lp1343
I195
aI94
aa(lp1344
I182
aI27
aa(lp1345
I49
aI177
aa(lp1346
I95
aI75
aa(lp1347
I158
aI31
aa(lp1348
I179
aI175
aa(lp1349
I203
aI31
aa(lp1350
I112
aI140
aa(lp1351
I179
aI49
aa(lp1352
I114
aI100
aa(lp1353
I31
aI69
aa(lp1354
I222
aI242
aa(lp1355
I181
aI68
aa(lp1356
I117
aI161
aa(lp1357
I241
aI49
aa(lp1358
I130
aI181
aa(lp1359
I70
aI50
aa(lp1360
I31
aI202
aa(lp1361
I220
aI116
aa(lp1362
I66
aI181
aa(lp1363
I146
aI220
aa(lp1364
I52
aI16
aa(lp1365
I115
aI225
aa(lp1366
I49
aI124
aa(lp1367
I73
aI247
aa(lp1368
I256
aI99
aa(lp1369
I72
aI159
aa(lp1370
I28
aI136
aa(lp1371
I199
aI256
aa(lp1372
I244
aI24
aa(lp1373
I115
aI76
aa(lp1374
I167
aI201
aa(lp1375
I144
aI72
aasS'units'
p1376
S'seconds'
p1377
sS'identifier'
p1378
S'matmult2'
p1379
sS'os'
p1380
S'CYGWIN_NT-6.1-1.7.32-0.274-5-3-x86_64-64bit'
p1381
s.