(dp0
S'results'
p1
(lp2
(lp3
F8.56e-06
aa(lp4
F8.18e-06
aa(lp5
F1.34e-05
aa(lp6
F3.11e-06
aa(lp7
F2.372e-05
aa(lp8
F9.24e-06
aa(lp9
F2.36e-06
aa(lp10
F1.837e-05
aa(lp11
F2.444e-05
aa(lp12
F1.704e-05
aa(lp13
F1.807e-05
aa(lp14
F2.022e-05
aa(lp15
F1.1e-05
aa(lp16
F8e-07
aa(lp17
F1.701e-05
aa(lp18
F1.164e-05
aa(lp19
F8.61e-06
aa(lp20
F1.855e-05
aa(lp21
F2.232e-05
aa(lp22
F1.345e-05
aa(lp23
F2.085e-05
aa(lp24
F2.64e-06
aa(lp25
F2.78e-06
aa(lp26
F1.385e-05
aa(lp27
F2.379e-05
aa(lp28
F2.071e-05
aa(lp29
F1.856e-05
aa(lp30
F2.931e-05
aa(lp31
F1.39e-05
aa(lp32
F3.08e-06
aa(lp33
F1.09e-06
aa(lp34
F2.209e-05
aa(lp35
F2.441e-05
aa(lp36
F9.18e-06
aa(lp37
F1.995e-05
aa(lp38
F1.627e-05
aa(lp39
F2.222e-05
aa(lp40
F1.586e-05
aa(lp41
F5.76e-06
aa(lp42
F2.21e-06
aa(lp43
F1.222e-05
aa(lp44
F5.71e-06
aa(lp45
F1.61e-06
aa(lp46
F2.41e-06
aa(lp47
F1.129e-05
aa(lp48
F2.142e-05
aa(lp49
F1.123e-05
aa(lp50
F1.553e-05
aa(lp51
F1.355e-05
aa(lp52
F1.5e-06
aa(lp53
F2.498e-05
aa(lp54
F2.914e-05
aa(lp55
F5.45e-06
aa(lp56
F7.28e-06
aa(lp57
F8.31e-06
aa(lp58
F1.394e-05
aa(lp59
F2.857e-05
aa(lp60
F8.22e-06
aa(lp61
F1.886e-05
aa(lp62
F1.147e-05
aa(lp63
F1.861e-05
aa(lp64
F3.147e-05
aa(lp65
F2.541e-05
aa(lp66
F1.294e-05
aa(lp67
F6.43e-06
aa(lp68
F2.389e-05
aa(lp69
F1.65e-06
aa(lp70
F8.52e-06
aa(lp71
F2.126e-05
aa(lp72
F3.032e-05
aa(lp73
F6.59e-06
aa(lp74
F1.547e-05
aa(lp75
F3.59e-06
aa(lp76
F2.976e-05
aa(lp77
F2.303e-05
aa(lp78
F1.219e-05
aa(lp79
F2.862e-05
aa(lp80
F1.116e-05
aa(lp81
F2.921e-05
aa(lp82
F2.31e-05
aa(lp83
F3.346e-05
aa(lp84
F2.607e-05
aa(lp85
F1.025e-05
aa(lp86
F1.338e-05
aa(lp87
F1.763e-05
aa(lp88
F1.89e-06
aa(lp89
F6e-07
aa(lp90
F5.65e-06
aa(lp91
F1.792e-05
aa(lp92
F1.345e-05
aa(lp93
F2.507e-05
aa(lp94
F3.134e-05
aa(lp95
F3.245e-05
aa(lp96
F1.597e-05
aa(lp97
F2.662e-05
aa(lp98
F1.818e-05
aa(lp99
F2.949e-05
aa(lp100
F2.264e-05
aa(lp101
F7e-07
aa(lp102
F2.665e-05
aa(lp103
F3.82e-06
aa(lp104
F1.611e-05
aa(lp105
F1.181e-05
aa(lp106
F2.947e-05
aa(lp107
F2.865e-05
aa(lp108
F1.487e-05
aa(lp109
F1.401e-05
aa(lp110
F1.674e-05
aa(lp111
F3.276e-05
aa(lp112
F1.497e-05
aa(lp113
F4.88e-06
aa(lp114
F3.038e-05
aa(lp115
F3.059e-05
aa(lp116
F1.641e-05
aa(lp117
F8.13e-06
aa(lp118
F7.39e-06
aa(lp119
F1.652e-05
aa(lp120
F7e-07
aa(lp121
F3.281e-05
aa(lp122
F2.99e-06
aa(lp123
F1.286e-05
aa(lp124
F2.701e-05
aa(lp125
F2.93e-05
aa(lp126
F2.39e-06
aa(lp127
F3.061e-05
aa(lp128
F1.762e-05
aa(lp129
F2.614e-05
aa(lp130
F3.217e-05
aa(lp131
F6.75e-06
aa(lp132
F3.397e-05
aa(lp133
F2.632e-05
aa(lp134
F1.245e-05
aa(lp135
F2.531e-05
aa(lp136
F2.246e-05
aa(lp137
F1.043e-05
aa(lp138
F4.3e-07
aa(lp139
F3.231e-05
aa(lp140
F2.79e-06
aa(lp141
F2.196e-05
aa(lp142
F5.97e-06
aa(lp143
F4.1e-06
aa(lp144
F2.775e-05
aa(lp145
F8.4e-07
aa(lp146
F2.264e-05
aa(lp147
F2.084e-05
aa(lp148
F7.24e-06
aa(lp149
F4.99e-06
aa(lp150
F6.74e-06
aa(lp151
F1.705e-05
aa(lp152
F2.464e-05
aa(lp153
F1.22e-06
aa(lp154
F8.13e-06
aa(lp155
F1.949e-05
aa(lp156
F3.301e-05
aa(lp157
F2.319e-05
aa(lp158
F3.315e-05
aa(lp159
F2.735e-05
aa(lp160
F1.11e-06
aa(lp161
F3.027e-05
aa(lp162
F1.896e-05
aa(lp163
F7.69e-06
aa(lp164
F1.974e-05
aa(lp165
F1.429e-05
aa(lp166
F2.087e-05
aa(lp167
F4.73e-06
aa(lp168
F1.893e-05
aa(lp169
F2.646e-05
aa(lp170
F2.962e-05
aa(lp171
F2.082e-05
aa(lp172
F1.766e-05
aa(lp173
F1.874e-05
aa(lp174
F2.916e-05
aa(lp175
F2.296e-05
aa(lp176
F1.318e-05
aa(lp177
F4.03e-06
aa(lp178
F3.27e-05
aa(lp179
F9.16e-06
aa(lp180
F4.72e-06
aa(lp181
F7.14e-06
aa(lp182
F1.13e-06
aa(lp183
F6.73e-06
aa(lp184
F1.711e-05
aa(lp185
F2.267e-05
aa(lp186
F2.26e-05
aa(lp187
F1.69e-06
aa(lp188
F3.72e-06
aa(lp189
F1.428e-05
aa(lp190
F3.1e-05
aa(lp191
F1.171e-05
aa(lp192
F1.478e-05
aa(lp193
F1.06e-06
aa(lp194
F1.242e-05
aa(lp195
F1.117e-05
aa(lp196
F1.198e-05
aa(lp197
F2.01e-06
aa(lp198
F1.227e-05
aa(lp199
F2.97e-06
aa(lp200
F3.052e-05
aa(lp201
F2.75e-05
aa(lp202
F8.15e-06
aasS'month'
p203
I11
sS'argument tags'
p204
(lp205
S'N'
p206
aS'-'
p207
asS'year'
p208
I2014
sS'arch'
p209
S'x86_64'
p210
sS'day'
p211
I25
sS'result tags'
p212
(lp213
S'Run Time'
p214
asS'arguments'
p215
(lp216
(lp217
I1031
aI1031
aa(lp218
I985
aI985
aa(lp219
I1615
aI1615
aa(lp220
I374
aI374
aa(lp221
I2858
aI2858
aa(lp222
I1113
aI1113
aa(lp223
I284
aI284
aa(lp224
I2213
aI2213
aa(lp225
I2945
aI2945
aa(lp226
I2053
aI2053
aa(lp227
I2177
aI2177
aa(lp228
I2437
aI2437
aa(lp229
I1326
aI1326
aa(lp230
I95
aI95
aa(lp231
I2050
aI2050
aa(lp232
I1402
aI1402
aa(lp233
I1037
aI1037
aa(lp234
I2235
aI2235
aa(lp235
I2689
aI2689
aa(lp236
I1620
aI1620
aa(lp237
I2510
aI2510
aa(lp238
I317
aI317
aa(lp239
I334
aI334
aa(lp240
I1667
aI1667
aa(lp241
I2864
aI2864
aa(lp242
I2493
aI2493
aa(lp243
I2233
aI2233
aa(lp244
I3527
aI3527
aa(lp245
I1673
aI1673
aa(lp246
I370
aI370
aa(lp247
I131
aI131
aa(lp248
I2656
aI2656
aa(lp249
I2937
aI2937
aa(lp250
I1105
aI1105
aa(lp251
I2402
aI2402
aa(lp252
I1959
aI1959
aa(lp253
I2676
aI2676
aa(lp254
I1910
aI1910
aa(lp255
I694
aI694
aa(lp256
I266
aI266
aa(lp257
I1472
aI1472
aa(lp258
I687
aI687
aa(lp259
I193
aI193
aa(lp260
I290
aI290
aa(lp261
I1360
aI1360
aa(lp262
I2578
aI2578
aa(lp263
I1352
aI1352
aa(lp264
I1869
aI1869
aa(lp265
I1632
aI1632
aa(lp266
I180
aI180
aa(lp267
I3006
aI3006
aa(lp268
I3507
aI3507
aa(lp269
I656
aI656
aa(lp270
I876
aI876
aa(lp271
I1001
aI1001
aa(lp272
I1680
aI1680
aa(lp273
I3443
aI3443
aa(lp274
I990
aI990
aa(lp275
I2273
aI2273
aa(lp276
I1382
aI1382
aa(lp277
I2243
aI2243
aa(lp278
I3791
aI3791
aa(lp279
I3062
aI3062
aa(lp280
I1559
aI1559
aa(lp281
I774
aI774
aa(lp282
I2878
aI2878
aa(lp283
I198
aI198
aa(lp284
I1026
aI1026
aa(lp285
I2561
aI2561
aa(lp286
I3653
aI3653
aa(lp287
I794
aI794
aa(lp288
I1864
aI1864
aa(lp289
I432
aI432
aa(lp290
I3585
aI3585
aa(lp291
I2774
aI2774
aa(lp292
I1469
aI1469
aa(lp293
I3448
aI3448
aa(lp294
I1344
aI1344
aa(lp295
I3519
aI3519
aa(lp296
I2783
aI2783
aa(lp297
I4031
aI4031
aa(lp298
I3141
aI3141
aa(lp299
I1235
aI1235
aa(lp300
I1612
aI1612
aa(lp301
I2124
aI2124
aa(lp302
I227
aI227
aa(lp303
I72
aI72
aa(lp304
I680
aI680
aa(lp305
I2159
aI2159
aa(lp306
I1621
aI1621
aa(lp307
I3022
aI3022
aa(lp308
I3778
aI3778
aa(lp309
I3911
aI3911
aa(lp310
I1925
aI1925
aa(lp311
I3209
aI3209
aa(lp312
I2192
aI2192
aa(lp313
I3555
aI3555
aa(lp314
I2730
aI2730
aa(lp315
I84
aI84
aa(lp316
I3213
aI3213
aa(lp317
I460
aI460
aa(lp318
I1941
aI1941
aa(lp319
I1423
aI1423
aa(lp320
I3551
aI3551
aa(lp321
I3452
aI3452
aa(lp322
I1792
aI1792
aa(lp323
I1688
aI1688
aa(lp324
I2018
aI2018
aa(lp325
I3946
aI3946
aa(lp326
I1803
aI1803
aa(lp327
I588
aI588
aa(lp328
I3661
aI3661
aa(lp329
I3687
aI3687
aa(lp330
I1977
aI1977
aa(lp331
I980
aI980
aa(lp332
I890
aI890
aa(lp333
I1991
aI1991
aa(lp334
I83
aI83
aa(lp335
I3952
aI3952
aa(lp336
I360
aI360
aa(lp337
I1549
aI1549
aa(lp338
I3252
aI3252
aa(lp339
I3531
aI3531
aa(lp340
I288
aI288
aa(lp341
I3679
aI3679
aa(lp342
I2123
aI2123
aa(lp343
I3150
aI3150
aa(lp344
I3876
aI3876
aa(lp345
I813
aI813
aa(lp346
I4092
aI4092
aa(lp347
I3172
aI3172
aa(lp348
I1500
aI1500
aa(lp349
I3051
aI3051
aa(lp350
I2706
aI2706
aa(lp351
I1256
aI1256
aa(lp352
I51
aI51
aa(lp353
I3894
aI3894
aa(lp354
I335
aI335
aa(lp355
I2646
aI2646
aa(lp356
I719
aI719
aa(lp357
I493
aI493
aa(lp358
I3344
aI3344
aa(lp359
I100
aI100
aa(lp360
I2728
aI2728
aa(lp361
I2511
aI2511
aa(lp362
I872
aI872
aa(lp363
I601
aI601
aa(lp364
I811
aI811
aa(lp365
I2054
aI2054
aa(lp366
I2969
aI2969
aa(lp367
I146
aI146
aa(lp368
I979
aI979
aa(lp369
I2349
aI2349
aa(lp370
I3976
aI3976
aa(lp371
I2793
aI2793
aa(lp372
I3994
aI3994
aa(lp373
I3295
aI3295
aa(lp374
I133
aI133
aa(lp375
I3647
aI3647
aa(lp376
I2285
aI2285
aa(lp377
I926
aI926
aa(lp378
I2378
aI2378
aa(lp379
I1722
aI1722
aa(lp380
I2515
aI2515
aa(lp381
I569
aI569
aa(lp382
I2281
aI2281
aa(lp383
I3188
aI3188
aa(lp384
I3568
aI3568
aa(lp385
I2509
aI2509
aa(lp386
I2128
aI2128
aa(lp387
I2259
aI2259
aa(lp388
I3513
aI3513
aa(lp389
I2767
aI2767
aa(lp390
I1588
aI1588
aa(lp391
I485
aI485
aa(lp392
I3937
aI3937
aa(lp393
I1103
aI1103
aa(lp394
I568
aI568
aa(lp395
I860
aI860
aa(lp396
I135
aI135
aa(lp397
I810
aI810
aa(lp398
I2062
aI2062
aa(lp399
I2732
aI2732
aa(lp400
I2723
aI2723
aa(lp401
I203
aI203
aa(lp402
I448
aI448
aa(lp403
I1720
aI1720
aa(lp404
I3733
aI3733
aa(lp405
I1410
aI1410
aa(lp406
I1780
aI1780
aa(lp407
I127
aI127
aa(lp408
I1497
aI1497
aa(lp409
I1346
aI1346
aa(lp410
I1443
aI1443
aa(lp411
I242
aI242
aa(lp412
I1478
aI1478
aa(lp413
I357
aI357
aa(lp414
I3675
aI3675
aa(lp415
I3311
aI3311
aa(lp416
I981
aI981
aasS'units'
p417
S'seconds'
p418
sS'identifier'
p419
S'tilera-dot-product'
p420
sS'os'
p421
S'Linux-2.6.32-358.23.2.el6.x86_64-x86_64-with-redhat-6.4-Santiago'
p422
s.