(dp0
S'results'
p1
(lp2
(lp3
F9.2e-07
aa(lp4
F3.13e-06
aa(lp5
F5.35e-06
aa(lp6
F7.57e-06
aa(lp7
F9.78e-06
aa(lp8
F1.205e-05
aa(lp9
F1.427e-05
aa(lp10
F1.648e-05
aa(lp11
F1.87e-05
aa(lp12
F2.091e-05
aa(lp13
F2.318e-05
aa(lp14
F2.54e-05
aa(lp15
F2.761e-05
aa(lp16
F2.983e-05
aa(lp17
F3.204e-05
aa(lp18
F3.432e-05
aa(lp19
F3.653e-05
aa(lp20
F3.875e-05
aa(lp21
F4.096e-05
aa(lp22
F4.323e-05
aa(lp23
F4.545e-05
aa(lp24
F4.766e-05
aa(lp25
F4.988e-05
aa(lp26
F5.209e-05
aa(lp27
F5.436e-05
aa(lp28
F5.658e-05
aa(lp29
F5.879e-05
aa(lp30
F6.101e-05
aa(lp31
F6.323e-05
aa(lp32
F6.549e-05
aa(lp33
F6.771e-05
aa(lp34
F6.993e-05
aa(lp35
F7.215e-05
aa(lp36
F7.441e-05
aa(lp37
F7.663e-05
aa(lp38
F7.884e-05
aa(lp39
F8.106e-05
aa(lp40
F8.327e-05
aa(lp41
F8.554e-05
aa(lp42
F8.776e-05
aa(lp43
F8.998e-05
aa(lp44
F9.219e-05
aa(lp45
F9.441e-05
aa(lp46
F9.668e-05
aa(lp47
F9.889e-05
aa(lp48
F0.00010111
aa(lp49
F0.00010332
aa(lp50
F0.00010554
aa(lp51
F0.00010781
aa(lp52
F0.00011003
aa(lp53
F0.00011224
aa(lp54
F0.00011446
aa(lp55
F0.00011673
aa(lp56
F0.00011895
aa(lp57
F0.00012115
aa(lp58
F0.00012338
aa(lp59
F0.00012559
aa(lp60
F0.00012786
aa(lp61
F0.00013008
aa(lp62
F0.00013229
aa(lp63
F0.00013451
aa(lp64
F0.00013672
aa(lp65
F0.00013899
aa(lp66
F0.0001412
aa(lp67
F0.00014342
aa(lp68
F0.00014564
aa(lp69
F0.00014791
aa(lp70
F0.00015012
aa(lp71
F0.00015234
aa(lp72
F0.00015455
aa(lp73
F0.00015677
aa(lp74
F0.00015904
aa(lp75
F0.00016125
aa(lp76
F0.00016347
aa(lp77
F0.00016569
aa(lp78
F0.00016791
aa(lp79
F0.00017017
aa(lp80
F0.00017239
aa(lp81
F0.0001746
aa(lp82
F0.00017682
aa(lp83
F0.00017904
aa(lp84
F0.00018131
aa(lp85
F0.00018353
aa(lp86
F0.00018574
aa(lp87
F0.00018796
aa(lp88
F0.00019023
aa(lp89
F0.00019244
aa(lp90
F0.00019465
aa(lp91
F0.00019687
aa(lp92
F0.00019908
aa(lp93
F0.00020136
aa(lp94
F0.00020357
aa(lp95
F0.00020579
aa(lp96
F0.00020801
aa(lp97
F0.00021022
aa(lp98
F0.00021249
aa(lp99
F0.00021471
aa(lp100
F0.00021693
aa(lp101
F0.00021915
aa(lp102
F0.00022225
aasS'month'
p103
I9
sS'argument tags'
p104
(lp105
S'N'
p106
aS'-'
p107
asS'year'
p108
I2014
sS'arch'
p109
S'x86_64'
p110
sS'day'
p111
I23
sS'result tags'
p112
(lp113
S'Run Time'
p114
asS'arguments'
p115
(lp116
(cnumpy.core.multiarray
scalar
p117
(cnumpy
dtype
p118
(S'i4'
p119
I0
I1
tp120
Rp121
(I3
S'<'
p122
NNNI-1
I-1
I0
tp123
bS'\x10\x00\x00\x00'
p124
tp125
Rp126
g117
(g121
S'\x10\x00\x00\x00'
p127
tp128
Rp129
tp130
a(g117
(g121
S'9\x00\x00\x00'
p131
tp132
Rp133
g117
(g121
S'9\x00\x00\x00'
p134
tp135
Rp136
tp137
a(g117
(g121
S'b\x00\x00\x00'
p138
tp139
Rp140
g117
(g121
S'b\x00\x00\x00'
p141
tp142
Rp143
tp144
a(g117
(g121
S'\x8b\x00\x00\x00'
p145
tp146
Rp147
g117
(g121
S'\x8b\x00\x00\x00'
p148
tp149
Rp150
tp151
a(g117
(g121
S'\xb4\x00\x00\x00'
p152
tp153
Rp154
g117
(g121
S'\xb4\x00\x00\x00'
p155
tp156
Rp157
tp158
a(g117
(g121
S'\xde\x00\x00\x00'
p159
tp160
Rp161
g117
(g121
S'\xde\x00\x00\x00'
p162
tp163
Rp164
tp165
a(g117
(g121
S'\x07\x01\x00\x00'
p166
tp167
Rp168
g117
(g121
S'\x07\x01\x00\x00'
p169
tp170
Rp171
tp172
a(g117
(g121
S'0\x01\x00\x00'
p173
tp174
Rp175
g117
(g121
S'0\x01\x00\x00'
p176
tp177
Rp178
tp179
a(g117
(g121
S'Y\x01\x00\x00'
p180
tp181
Rp182
g117
(g121
S'Y\x01\x00\x00'
p183
tp184
Rp185
tp186
a(g117
(g121
S'\x82\x01\x00\x00'
p187
tp188
Rp189
g117
(g121
S'\x82\x01\x00\x00'
p190
tp191
Rp192
tp193
a(g117
(g121
S'\xac\x01\x00\x00'
p194
tp195
Rp196
g117
(g121
S'\xac\x01\x00\x00'
p197
tp198
Rp199
tp200
a(g117
(g121
S'\xd5\x01\x00\x00'
p201
tp202
Rp203
g117
(g121
S'\xd5\x01\x00\x00'
p204
tp205
Rp206
tp207
a(g117
(g121
S'\xfe\x01\x00\x00'
p208
tp209
Rp210
g117
(g121
S'\xfe\x01\x00\x00'
p211
tp212
Rp213
tp214
a(g117
(g121
S"'\x02\x00\x00"
p215
tp216
Rp217
g117
(g121
S"'\x02\x00\x00"
p218
tp219
Rp220
tp221
a(g117
(g121
S'P\x02\x00\x00'
p222
tp223
Rp224
g117
(g121
S'P\x02\x00\x00'
p225
tp226
Rp227
tp228
a(g117
(g121
S'z\x02\x00\x00'
p229
tp230
Rp231
g117
(g121
S'z\x02\x00\x00'
p232
tp233
Rp234
tp235
a(g117
(g121
S'\xa3\x02\x00\x00'
p236
tp237
Rp238
g117
(g121
S'\xa3\x02\x00\x00'
p239
tp240
Rp241
tp242
a(g117
(g121
S'\xcc\x02\x00\x00'
p243
tp244
Rp245
g117
(g121
S'\xcc\x02\x00\x00'
p246
tp247
Rp248
tp249
a(g117
(g121
S'\xf5\x02\x00\x00'
p250
tp251
Rp252
g117
(g121
S'\xf5\x02\x00\x00'
p253
tp254
Rp255
tp256
a(g117
(g121
S'\x1f\x03\x00\x00'
p257
tp258
Rp259
g117
(g121
S'\x1f\x03\x00\x00'
p260
tp261
Rp262
tp263
a(g117
(g121
S'H\x03\x00\x00'
p264
tp265
Rp266
g117
(g121
S'H\x03\x00\x00'
p267
tp268
Rp269
tp270
a(g117
(g121
S'q\x03\x00\x00'
p271
tp272
Rp273
g117
(g121
S'q\x03\x00\x00'
p274
tp275
Rp276
tp277
a(g117
(g121
S'\x9a\x03\x00\x00'
p278
tp279
Rp280
g117
(g121
S'\x9a\x03\x00\x00'
p281
tp282
Rp283
tp284
a(g117
(g121
S'\xc3\x03\x00\x00'
p285
tp286
Rp287
g117
(g121
S'\xc3\x03\x00\x00'
p288
tp289
Rp290
tp291
a(g117
(g121
S'\xed\x03\x00\x00'
p292
tp293
Rp294
g117
(g121
S'\xed\x03\x00\x00'
p295
tp296
Rp297
tp298
a(g117
(g121
S'\x16\x04\x00\x00'
p299
tp300
Rp301
g117
(g121
S'\x16\x04\x00\x00'
p302
tp303
Rp304
tp305
a(g117
(g121
S'?\x04\x00\x00'
p306
tp307
Rp308
g117
(g121
S'?\x04\x00\x00'
p309
tp310
Rp311
tp312
a(g117
(g121
S'h\x04\x00\x00'
p313
tp314
Rp315
g117
(g121
S'h\x04\x00\x00'
p316
tp317
Rp318
tp319
a(g117
(g121
S'\x91\x04\x00\x00'
p320
tp321
Rp322
g117
(g121
S'\x91\x04\x00\x00'
p323
tp324
Rp325
tp326
a(g117
(g121
S'\xbb\x04\x00\x00'
p327
tp328
Rp329
g117
(g121
S'\xbb\x04\x00\x00'
p330
tp331
Rp332
tp333
a(g117
(g121
S'\xe4\x04\x00\x00'
p334
tp335
Rp336
g117
(g121
S'\xe4\x04\x00\x00'
p337
tp338
Rp339
tp340
a(g117
(g121
S'\r\x05\x00\x00'
p341
tp342
Rp343
g117
(g121
S'\r\x05\x00\x00'
p344
tp345
Rp346
tp347
a(g117
(g121
S'6\x05\x00\x00'
p348
tp349
Rp350
g117
(g121
S'6\x05\x00\x00'
p351
tp352
Rp353
tp354
a(g117
(g121
S'`\x05\x00\x00'
p355
tp356
Rp357
g117
(g121
S'`\x05\x00\x00'
p358
tp359
Rp360
tp361
a(g117
(g121
S'\x89\x05\x00\x00'
p362
tp363
Rp364
g117
(g121
S'\x89\x05\x00\x00'
p365
tp366
Rp367
tp368
a(g117
(g121
S'\xb2\x05\x00\x00'
p369
tp370
Rp371
g117
(g121
S'\xb2\x05\x00\x00'
p372
tp373
Rp374
tp375
a(g117
(g121
S'\xdb\x05\x00\x00'
p376
tp377
Rp378
g117
(g121
S'\xdb\x05\x00\x00'
p379
tp380
Rp381
tp382
a(g117
(g121
S'\x04\x06\x00\x00'
p383
tp384
Rp385
g117
(g121
S'\x04\x06\x00\x00'
p386
tp387
Rp388
tp389
a(g117
(g121
S'.\x06\x00\x00'
p390
tp391
Rp392
g117
(g121
S'.\x06\x00\x00'
p393
tp394
Rp395
tp396
a(g117
(g121
S'W\x06\x00\x00'
p397
tp398
Rp399
g117
(g121
S'W\x06\x00\x00'
p400
tp401
Rp402
tp403
a(g117
(g121
S'\x80\x06\x00\x00'
p404
tp405
Rp406
g117
(g121
S'\x80\x06\x00\x00'
p407
tp408
Rp409
tp410
a(g117
(g121
S'\xa9\x06\x00\x00'
p411
tp412
Rp413
g117
(g121
S'\xa9\x06\x00\x00'
p414
tp415
Rp416
tp417
a(g117
(g121
S'\xd2\x06\x00\x00'
p418
tp419
Rp420
g117
(g121
S'\xd2\x06\x00\x00'
p421
tp422
Rp423
tp424
a(g117
(g121
S'\xfc\x06\x00\x00'
p425
tp426
Rp427
g117
(g121
S'\xfc\x06\x00\x00'
p428
tp429
Rp430
tp431
a(g117
(g121
S'%\x07\x00\x00'
p432
tp433
Rp434
g117
(g121
S'%\x07\x00\x00'
p435
tp436
Rp437
tp438
a(g117
(g121
S'N\x07\x00\x00'
p439
tp440
Rp441
g117
(g121
S'N\x07\x00\x00'
p442
tp443
Rp444
tp445
a(g117
(g121
S'w\x07\x00\x00'
p446
tp447
Rp448
g117
(g121
S'w\x07\x00\x00'
p449
tp450
Rp451
tp452
a(g117
(g121
S'\xa0\x07\x00\x00'
p453
tp454
Rp455
g117
(g121
S'\xa0\x07\x00\x00'
p456
tp457
Rp458
tp459
a(g117
(g121
S'\xca\x07\x00\x00'
p460
tp461
Rp462
g117
(g121
S'\xca\x07\x00\x00'
p463
tp464
Rp465
tp466
a(g117
(g121
S'\xf3\x07\x00\x00'
p467
tp468
Rp469
g117
(g121
S'\xf3\x07\x00\x00'
p470
tp471
Rp472
tp473
a(g117
(g121
S'\x1c\x08\x00\x00'
p474
tp475
Rp476
g117
(g121
S'\x1c\x08\x00\x00'
p477
tp478
Rp479
tp480
a(g117
(g121
S'E\x08\x00\x00'
p481
tp482
Rp483
g117
(g121
S'E\x08\x00\x00'
p484
tp485
Rp486
tp487
a(g117
(g121
S'o\x08\x00\x00'
p488
tp489
Rp490
g117
(g121
S'o\x08\x00\x00'
p491
tp492
Rp493
tp494
a(g117
(g121
S'\x98\x08\x00\x00'
p495
tp496
Rp497
g117
(g121
S'\x98\x08\x00\x00'
p498
tp499
Rp500
tp501
a(g117
(g121
S'\xc1\x08\x00\x00'
p502
tp503
Rp504
g117
(g121
S'\xc1\x08\x00\x00'
p505
tp506
Rp507
tp508
a(g117
(g121
S'\xea\x08\x00\x00'
p509
tp510
Rp511
g117
(g121
S'\xea\x08\x00\x00'
p512
tp513
Rp514
tp515
a(g117
(g121
S'\x13\t\x00\x00'
p516
tp517
Rp518
g117
(g121
S'\x13\t\x00\x00'
p519
tp520
Rp521
tp522
a(g117
(g121
S'=\t\x00\x00'
p523
tp524
Rp525
g117
(g121
S'=\t\x00\x00'
p526
tp527
Rp528
tp529
a(g117
(g121
S'f\t\x00\x00'
p530
tp531
Rp532
g117
(g121
S'f\t\x00\x00'
p533
tp534
Rp535
tp536
a(g117
(g121
S'\x8f\t\x00\x00'
p537
tp538
Rp539
g117
(g121
S'\x8f\t\x00\x00'
p540
tp541
Rp542
tp543
a(g117
(g121
S'\xb8\t\x00\x00'
p544
tp545
Rp546
g117
(g121
S'\xb8\t\x00\x00'
p547
tp548
Rp549
tp550
a(g117
(g121
S'\xe1\t\x00\x00'
p551
tp552
Rp553
g117
(g121
S'\xe1\t\x00\x00'
p554
tp555
Rp556
tp557
a(g117
(g121
S'\x0b\n\x00\x00'
p558
tp559
Rp560
g117
(g121
S'\x0b\n\x00\x00'
p561
tp562
Rp563
tp564
a(g117
(g121
S'4\n\x00\x00'
p565
tp566
Rp567
g117
(g121
S'4\n\x00\x00'
p568
tp569
Rp570
tp571
a(g117
(g121
S']\n\x00\x00'
p572
tp573
Rp574
g117
(g121
S']\n\x00\x00'
p575
tp576
Rp577
tp578
a(g117
(g121
S'\x86\n\x00\x00'
p579
tp580
Rp581
g117
(g121
S'\x86\n\x00\x00'
p582
tp583
Rp584
tp585
a(g117
(g121
S'\xb0\n\x00\x00'
p586
tp587
Rp588
g117
(g121
S'\xb0\n\x00\x00'
p589
tp590
Rp591
tp592
a(g117
(g121
S'\xd9\n\x00\x00'
p593
tp594
Rp595
g117
(g121
S'\xd9\n\x00\x00'
p596
tp597
Rp598
tp599
a(g117
(g121
S'\x02\x0b\x00\x00'
p600
tp601
Rp602
g117
(g121
S'\x02\x0b\x00\x00'
p603
tp604
Rp605
tp606
a(g117
(g121
S'+\x0b\x00\x00'
p607
tp608
Rp609
g117
(g121
S'+\x0b\x00\x00'
p610
tp611
Rp612
tp613
a(g117
(g121
S'T\x0b\x00\x00'
p614
tp615
Rp616
g117
(g121
S'T\x0b\x00\x00'
p617
tp618
Rp619
tp620
a(g117
(g121
S'~\x0b\x00\x00'
p621
tp622
Rp623
g117
(g121
S'~\x0b\x00\x00'
p624
tp625
Rp626
tp627
a(g117
(g121
S'\xa7\x0b\x00\x00'
p628
tp629
Rp630
g117
(g121
S'\xa7\x0b\x00\x00'
p631
tp632
Rp633
tp634
a(g117
(g121
S'\xd0\x0b\x00\x00'
p635
tp636
Rp637
g117
(g121
S'\xd0\x0b\x00\x00'
p638
tp639
Rp640
tp641
a(g117
(g121
S'\xf9\x0b\x00\x00'
p642
tp643
Rp644
g117
(g121
S'\xf9\x0b\x00\x00'
p645
tp646
Rp647
tp648
a(g117
(g121
S'"\x0c\x00\x00'
p649
tp650
Rp651
g117
(g121
S'"\x0c\x00\x00'
p652
tp653
Rp654
tp655
a(g117
(g121
S'L\x0c\x00\x00'
p656
tp657
Rp658
g117
(g121
S'L\x0c\x00\x00'
p659
tp660
Rp661
tp662
a(g117
(g121
S'u\x0c\x00\x00'
p663
tp664
Rp665
g117
(g121
S'u\x0c\x00\x00'
p666
tp667
Rp668
tp669
a(g117
(g121
S'\x9e\x0c\x00\x00'
p670
tp671
Rp672
g117
(g121
S'\x9e\x0c\x00\x00'
p673
tp674
Rp675
tp676
a(g117
(g121
S'\xc7\x0c\x00\x00'
p677
tp678
Rp679
g117
(g121
S'\xc7\x0c\x00\x00'
p680
tp681
Rp682
tp683
a(g117
(g121
S'\xf0\x0c\x00\x00'
p684
tp685
Rp686
g117
(g121
S'\xf0\x0c\x00\x00'
p687
tp688
Rp689
tp690
a(g117
(g121
S'\x1a\r\x00\x00'
p691
tp692
Rp693
g117
(g121
S'\x1a\r\x00\x00'
p694
tp695
Rp696
tp697
a(g117
(g121
S'C\r\x00\x00'
p698
tp699
Rp700
g117
(g121
S'C\r\x00\x00'
p701
tp702
Rp703
tp704
a(g117
(g121
S'l\r\x00\x00'
p705
tp706
Rp707
g117
(g121
S'l\r\x00\x00'
p708
tp709
Rp710
tp711
a(g117
(g121
S'\x95\r\x00\x00'
p712
tp713
Rp714
g117
(g121
S'\x95\r\x00\x00'
p715
tp716
Rp717
tp718
a(g117
(g121
S'\xbf\r\x00\x00'
p719
tp720
Rp721
g117
(g121
S'\xbf\r\x00\x00'
p722
tp723
Rp724
tp725
a(g117
(g121
S'\xe8\r\x00\x00'
p726
tp727
Rp728
g117
(g121
S'\xe8\r\x00\x00'
p729
tp730
Rp731
tp732
a(g117
(g121
S'\x11\x0e\x00\x00'
p733
tp734
Rp735
g117
(g121
S'\x11\x0e\x00\x00'
p736
tp737
Rp738
tp739
a(g117
(g121
S':\x0e\x00\x00'
p740
tp741
Rp742
g117
(g121
S':\x0e\x00\x00'
p743
tp744
Rp745
tp746
a(g117
(g121
S'c\x0e\x00\x00'
p747
tp748
Rp749
g117
(g121
S'c\x0e\x00\x00'
p750
tp751
Rp752
tp753
a(g117
(g121
S'\x8d\x0e\x00\x00'
p754
tp755
Rp756
g117
(g121
S'\x8d\x0e\x00\x00'
p757
tp758
Rp759
tp760
a(g117
(g121
S'\xb6\x0e\x00\x00'
p761
tp762
Rp763
g117
(g121
S'\xb6\x0e\x00\x00'
p764
tp765
Rp766
tp767
a(g117
(g121
S'\xdf\x0e\x00\x00'
p768
tp769
Rp770
g117
(g121
S'\xdf\x0e\x00\x00'
p771
tp772
Rp773
tp774
a(g117
(g121
S'\x08\x0f\x00\x00'
p775
tp776
Rp777
g117
(g121
S'\x08\x0f\x00\x00'
p778
tp779
Rp780
tp781
a(g117
(g121
S'1\x0f\x00\x00'
p782
tp783
Rp784
g117
(g121
S'1\x0f\x00\x00'
p785
tp786
Rp787
tp788
a(g117
(g121
S'[\x0f\x00\x00'
p789
tp790
Rp791
g117
(g121
S'[\x0f\x00\x00'
p792
tp793
Rp794
tp795
a(g117
(g121
S'\x84\x0f\x00\x00'
p796
tp797
Rp798
g117
(g121
S'\x84\x0f\x00\x00'
p799
tp800
Rp801
tp802
a(g117
(g121
S'\xad\x0f\x00\x00'
p803
tp804
Rp805
g117
(g121
S'\xad\x0f\x00\x00'
p806
tp807
Rp808
tp809
a(g117
(g121
S'\xd6\x0f\x00\x00'
p810
tp811
Rp812
g117
(g121
S'\xd6\x0f\x00\x00'
p813
tp814
Rp815
tp816
a(g117
(g121
S'\x00\x10\x00\x00'
p817
tp818
Rp819
g117
(g121
S'\x00\x10\x00\x00'
p820
tp821
Rp822
tp823
asS'units'
p824
S'seconds'
p825
sS'identifier'
p826
S'tilera-dot-product'
p827
sS'os'
p828
S'CYGWIN_NT-6.1-1.7.32-0.274-5-3-x86_64-64bit'
p829
s.