(dp0
S'results'
p1
(lp2
(lp3
F9.48e-06
aa(lp4
F4.337e-05
aa(lp5
F0.00017647
aa(lp6
F0.00023919
aa(lp7
F0.00034703
aa(lp8
F0.00060349
aa(lp9
F0.00075183
aa(lp10
F0.00114573
aa(lp11
F0.00136739
aa(lp12
F0.00183414
aa(lp13
F0.00248459
aa(lp14
F0.00234526
aa(lp15
F1.919e-05
aa(lp16
F0.00014584
aa(lp17
F0.00023934
aa(lp18
F0.00055396
aa(lp19
F0.00084243
aa(lp20
F0.00132428
aa(lp21
F0.00202624
aa(lp22
F0.00205624
aa(lp23
F0.00307588
aa(lp24
F0.00343286
aa(lp25
F0.00449529
aa(lp26
F0.00667898
aa(lp27
F3.439e-05
aa(lp28
F0.00015341
aa(lp29
F0.00054704
aa(lp30
F0.00100827
aa(lp31
F0.00143776
aa(lp32
F0.00202595
aa(lp33
F0.00314109
aa(lp34
F0.0038392
aa(lp35
F0.00464978
aa(lp36
F0.00615009
aa(lp37
F0.00816123
aa(lp38
F0.00955177
aa(lp39
F5.135e-05
aa(lp40
F0.00031661
aa(lp41
F0.00063055
aa(lp42
F0.00100017
aa(lp43
F0.00214385
aa(lp44
F0.00290074
aa(lp45
F0.00379754
aa(lp46
F0.00556561
aa(lp47
F0.00688125
aa(lp48
F0.00810838
aa(lp49
F0.01056266
aa(lp50
F0.01222123
aa(lp51
F5.727e-05
aa(lp52
F0.00020679
aa(lp53
F0.00085169
aa(lp54
F0.00130583
aa(lp55
F0.00223287
aa(lp56
F0.00366001
aa(lp57
F0.00534937
aa(lp58
F0.00628514
aa(lp59
F0.00833984
aa(lp60
F0.00984663
aa(lp61
F0.01281793
aa(lp62
F0.01564885
aa(lp63
F6.824e-05
aa(lp64
F0.0004277
aa(lp65
F0.00090064
aa(lp66
F0.00176787
aa(lp67
F0.00304571
aa(lp68
F0.00365431
aa(lp69
F0.0054047
aa(lp70
F0.00751185
aa(lp71
F0.01161016
aa(lp72
F0.01189419
aa(lp73
F0.01593749
aa(lp74
F0.018941
aa(lp75
F0.00014147
aa(lp76
F0.00044346
aa(lp77
F0.00093197
aa(lp78
F0.00211987
aa(lp79
F0.00330561
aa(lp80
F0.005106
aa(lp81
F0.00700271
aa(lp82
F0.00950076
aa(lp83
F0.01411912
aa(lp84
F0.01603021
aa(lp85
F0.0191255
aa(lp86
F0.02280899
aa(lp87
F9.407e-05
aa(lp88
F0.00062394
aa(lp89
F0.00099001
aa(lp90
F0.0021301
aa(lp91
F0.0034882
aa(lp92
F0.00591349
aa(lp93
F0.00827951
aa(lp94
F0.01145793
aa(lp95
F0.01553825
aa(lp96
F0.0193934
aa(lp97
F0.02330756
aa(lp98
F0.02872062
aa(lp99
F0.00010562
aa(lp100
F0.00050012
aa(lp101
F0.00176556
aa(lp102
F0.0031017
aa(lp103
F0.00492532
aa(lp104
F0.00614704
aa(lp105
F0.00923108
aa(lp106
F0.01173915
aa(lp107
F0.0146469
aa(lp108
F0.02302193
aa(lp109
F0.02815055
aa(lp110
F0.03091561
aa(lp111
F0.00020418
aa(lp112
F0.00052848
aa(lp113
F0.00198249
aa(lp114
F0.00269556
aa(lp115
F0.00458769
aa(lp116
F0.00699147
aa(lp117
F0.01087339
aa(lp118
F0.0154288
aa(lp119
F0.01913556
aa(lp120
F0.02501248
aa(lp121
F0.02900495
aa(lp122
F0.03564935
aa(lp123
F0.00012798
aa(lp124
F0.00074158
aa(lp125
F0.00145809
aa(lp126
F0.00349881
aa(lp127
F0.00596965
aa(lp128
F0.00729483
aa(lp129
F0.01126234
aa(lp130
F0.01462317
aa(lp131
F0.02183846
aa(lp132
F0.02750549
aa(lp133
F0.0322239
aa(lp134
F0.03976206
aa(lp135
F0.00016057
aa(lp136
F0.00087929
aa(lp137
F0.00175105
aa(lp138
F0.00366803
aa(lp139
F0.00602201
aa(lp140
F0.00898048
aa(lp141
F0.01314865
aa(lp142
F0.01790524
aa(lp143
F0.02018058
aa(lp144
F0.028518
aa(lp145
F0.03767313
aa(lp146
F0.04143002
aa(lp147
F0.005447
aa(lp148
F0.01150359
aa(lp149
F0.02359602
aa(lp150
F0.00955433
aa(lp151
F0.00039548
aa(lp152
F0.00069138
aa(lp153
F0.0171517
aa(lp154
F0.00142138
aa(lp155
F0.00098294
aa(lp156
F0.00669516
aa(lp157
F0.02449211
aa(lp158
F0.00163239
aa(lp159
F0.01465267
aa(lp160
F0.00097739
aa(lp161
F0.00844934
aa(lp162
F0.00158765
aa(lp163
F8.713e-05
aa(lp164
F0.00092318
aa(lp165
F0.00358349
aa(lp166
F0.00631573
aa(lp167
F0.02700561
aa(lp168
F0.00255038
aa(lp169
F0.01746062
aa(lp170
F0.00849794
aa(lp171
F0.00427792
aa(lp172
F0.00498199
aa(lp173
F0.00318517
aa(lp174
F0.02235828
aa(lp175
F0.00216784
aa(lp176
F0.0015479
aa(lp177
F0.00229639
aa(lp178
F0.00448069
aa(lp179
F0.01146771
aa(lp180
F0.00702268
aa(lp181
F8.717e-05
aa(lp182
F0.00108559
aa(lp183
F0.00275228
aa(lp184
F0.01299473
aa(lp185
F0.00480206
aa(lp186
F0.01339289
aa(lp187
F0.03247466
aa(lp188
F0.00152385
aa(lp189
F0.00465665
aa(lp190
F0.03200812
aa(lp191
F0.00051592
aa(lp192
F0.0001367
aa(lp193
F0.00230457
aa(lp194
F0.01525136
aa(lp195
F0.00488119
aa(lp196
F0.01976492
aa(lp197
F0.00852322
aa(lp198
F0.00402717
aa(lp199
F0.00465528
aa(lp200
F0.00561761
aa(lp201
F0.00032825
aa(lp202
F0.0272656
aa(lp203
F0.0333155
aa(lp204
F0.00059515
aa(lp205
F0.00437131
aa(lp206
F0.00028458
aa(lp207
F0.00034917
aa(lp208
F0.01008691
aa(lp209
F0.02334332
aa(lp210
F0.00014709
aa(lp211
F0.003354
aa(lp212
F6.048e-05
aa(lp213
F0.00162371
aa(lp214
F0.01994056
aa(lp215
F0.00675134
aa(lp216
F6.759e-05
aa(lp217
F0.00062471
aa(lp218
F0.00708612
aa(lp219
F0.00452318
aa(lp220
F0.0032528
aa(lp221
F0.01171315
aa(lp222
F0.00052976
aa(lp223
F0.01012958
aa(lp224
F0.01799625
aa(lp225
F0.00153025
aa(lp226
F0.01386964
aa(lp227
F0.00012434
aa(lp228
F0.00156419
aa(lp229
F0.00029046
aa(lp230
F0.00287722
aa(lp231
F0.00233065
aa(lp232
F0.02070707
aa(lp233
F0.0007628
aa(lp234
F0.00298784
aa(lp235
F0.00967328
aa(lp236
F0.0009799
aa(lp237
F0.01193169
aa(lp238
F0.00418462
aa(lp239
F0.00604684
aa(lp240
F0.0063138
aa(lp241
F0.00059464
aa(lp242
F0.00798905
aa(lp243
F0.00801721
aa(lp244
F0.00132663
aa(lp245
F0.00293127
aa(lp246
F0.00535302
aasS'month'
p247
I3
sS'argument tags'
p248
(lp249
S'M'
p250
aS'N'
p251
asS'year'
p252
I2014
sS'arch'
p253
S'x86_64'
p254
sS'day'
p255
I24
sS'result tags'
p256
(lp257
S'Run Time'
p258
asS'arguments'
p259
(lp260
(lp261
cnumpy.core.multiarray
scalar
p262
(cnumpy
dtype
p263
(S'i4'
p264
I0
I1
tp265
Rp266
(I3
S'<'
p267
NNNI-1
I-1
I0
tp268
bS'\x10\x00\x00\x00'
p269
tp270
Rp271
ag262
(g266
S'\x10\x00\x00\x00'
p272
tp273
Rp274
aa(lp275
g262
(g266
S'!\x00\x00\x00'
p276
tp277
Rp278
ag262
(g266
S'\x10\x00\x00\x00'
p279
tp280
Rp281
aa(lp282
g262
(g266
S'>\x00\x00\x00'
p283
tp284
Rp285
ag262
(g266
S'\x12\x00\x00\x00'
p286
tp287
Rp288
aa(lp289
g262
(g266
S'O\x00\x00\x00'
p290
tp291
Rp292
ag262
(g266
S'\x11\x00\x00\x00'
p293
tp294
Rp295
aa(lp296
g262
(g266
S'a\x00\x00\x00'
p297
tp298
Rp299
ag262
(g266
S'\x10\x00\x00\x00'
p300
tp301
Rp302
aa(lp303
g262
(g266
S'x\x00\x00\x00'
p304
tp305
Rp306
ag262
(g266
S'\x13\x00\x00\x00'
p307
tp308
Rp309
aa(lp310
g262
(g266
S'\x90\x00\x00\x00'
p311
tp312
Rp313
ag262
(g266
S'\x10\x00\x00\x00'
p314
tp315
Rp316
aa(lp317
g262
(g266
S'\xb2\x00\x00\x00'
p318
tp319
Rp320
ag262
(g266
S'\x10\x00\x00\x00'
p321
tp322
Rp323
aa(lp324
g262
(g266
S'\xbd\x00\x00\x00'
p325
tp326
Rp327
ag262
(g266
S'\x11\x00\x00\x00'
p328
tp329
Rp330
aa(lp331
g262
(g266
S'\xdb\x00\x00\x00'
p332
tp333
Rp334
ag262
(g266
S'\x11\x00\x00\x00'
p335
tp336
Rp337
aa(lp338
g262
(g266
S'\xee\x00\x00\x00'
p339
tp340
Rp341
ag262
(g266
S'\x14\x00\x00\x00'
p342
tp343
Rp344
aa(lp345
g262
(g266
S'\xff\x00\x00\x00'
p346
tp347
Rp348
ag262
(g266
S'\x10\x00\x00\x00'
p349
tp350
Rp351
aa(lp352
g262
(g266
S'\x10\x00\x00\x00'
p353
tp354
Rp355
ag262
(g266
S'!\x00\x00\x00'
p356
tp357
Rp358
aa(lp359
g262
(g266
S'&\x00\x00\x00'
p360
tp361
Rp362
ag262
(g266
S'*\x00\x00\x00'
p363
tp364
Rp365
aa(lp366
g262
(g266
S'9\x00\x00\x00'
p367
tp368
Rp369
ag262
(g266
S' \x00\x00\x00'
p370
tp371
Rp372
aa(lp373
g262
(g266
S'N\x00\x00\x00'
p374
tp375
Rp376
ag262
(g266
S'%\x00\x00\x00'
p377
tp378
Rp379
aa(lp380
g262
(g266
S'j\x00\x00\x00'
p381
tp382
Rp383
ag262
(g266
S'!\x00\x00\x00'
p384
tp385
Rp386
aa(lp387
g262
(g266
S'\x84\x00\x00\x00'
p388
tp389
Rp390
ag262
(g266
S'#\x00\x00\x00'
p391
tp392
Rp393
aa(lp394
g262
(g266
S'\x94\x00\x00\x00'
p395
tp396
Rp397
ag262
(g266
S'&\x00\x00\x00'
p398
tp399
Rp400
aa(lp401
g262
(g266
S'\xa5\x00\x00\x00'
p402
tp403
Rp404
ag262
(g266
S'#\x00\x00\x00'
p405
tp406
Rp407
aa(lp408
g262
(g266
S'\xbe\x00\x00\x00'
p409
tp410
Rp411
ag262
(g266
S'"\x00\x00\x00'
p412
tp413
Rp414
aa(lp415
g262
(g266
S'\xd6\x00\x00\x00'
p416
tp417
Rp418
ag262
(g266
S'#\x00\x00\x00'
p419
tp420
Rp421
aa(lp422
g262
(g266
S'\xe6\x00\x00\x00'
p423
tp424
Rp425
ag262
(g266
S'"\x00\x00\x00'
p426
tp427
Rp428
aa(lp429
g262
(g266
S'\x00\x01\x00\x00'
p430
tp431
Rp432
ag262
(g266
S'*\x00\x00\x00'
p433
tp434
Rp435
aa(lp436
g262
(g266
S'\x10\x00\x00\x00'
p437
tp438
Rp439
ag262
(g266
S':\x00\x00\x00'
p440
tp441
Rp442
aa(lp443
g262
(g266
S'!\x00\x00\x00'
p444
tp445
Rp446
ag262
(g266
S'<\x00\x00\x00'
p447
tp448
Rp449
aa(lp450
g262
(g266
S';\x00\x00\x00'
p451
tp452
Rp453
ag262
(g266
S'E\x00\x00\x00'
p454
tp455
Rp456
aa(lp457
g262
(g266
S'S\x00\x00\x00'
p458
tp459
Rp460
ag262
(g266
S'>\x00\x00\x00'
p461
tp462
Rp463
aa(lp464
g262
(g266
S'g\x00\x00\x00'
p465
tp466
Rp467
ag262
(g266
S':\x00\x00\x00'
p468
tp469
Rp470
aa(lp471
g262
(g266
S'y\x00\x00\x00'
p472
tp473
Rp474
ag262
(g266
S'<\x00\x00\x00'
p475
tp476
Rp477
aa(lp478
g262
(g266
S'\x97\x00\x00\x00'
p479
tp480
Rp481
ag262
(g266
S';\x00\x00\x00'
p482
tp483
Rp484
aa(lp485
g262
(g266
S'\xa4\x00\x00\x00'
p486
tp487
Rp488
ag262
(g266
S'=\x00\x00\x00'
p489
tp490
Rp491
aa(lp492
g262
(g266
S'\xbf\x00\x00\x00'
p493
tp494
Rp495
ag262
(g266
S'6\x00\x00\x00'
p496
tp497
Rp498
aa(lp499
g262
(g266
S'\xd7\x00\x00\x00'
p500
tp501
Rp502
ag262
(g266
S'9\x00\x00\x00'
p503
tp504
Rp505
aa(lp506
g262
(g266
S'\xe7\x00\x00\x00'
p507
tp508
Rp509
ag262
(g266
S'B\x00\x00\x00'
p510
tp511
Rp512
aa(lp513
g262
(g266
S'\x00\x01\x00\x00'
p514
tp515
Rp516
ag262
(g266
S'?\x00\x00\x00'
p517
tp518
Rp519
aa(lp520
g262
(g266
S'\x11\x00\x00\x00'
p521
tp522
Rp523
ag262
(g266
S'O\x00\x00\x00'
p524
tp525
Rp526
aa(lp527
g262
(g266
S')\x00\x00\x00'
p528
tp529
Rp530
ag262
(g266
S'T\x00\x00\x00'
p531
tp532
Rp533
aa(lp534
g262
(g266
S';\x00\x00\x00'
p535
tp536
Rp537
ag262
(g266
S'P\x00\x00\x00'
p538
tp539
Rp540
aa(lp541
g262
(g266
S'J\x00\x00\x00'
p542
tp543
Rp544
ag262
(g266
S'N\x00\x00\x00'
p545
tp546
Rp547
aa(lp548
g262
(g266
S'm\x00\x00\x00'
p549
tp550
Rp551
ag262
(g266
S'P\x00\x00\x00'
p552
tp553
Rp554
aa(lp555
g262
(g266
S'z\x00\x00\x00'
p556
tp557
Rp558
ag262
(g266
S'U\x00\x00\x00'
p559
tp560
Rp561
aa(lp562
g262
(g266
S'\x91\x00\x00\x00'
p563
tp564
Rp565
ag262
(g266
S'P\x00\x00\x00'
p566
tp567
Rp568
aa(lp569
g262
(g266
S'\xae\x00\x00\x00'
p570
tp571
Rp572
ag262
(g266
S'Q\x00\x00\x00'
p573
tp574
Rp575
aa(lp576
g262
(g266
S'\xbd\x00\x00\x00'
p577
tp578
Rp579
ag262
(g266
S'T\x00\x00\x00'
p580
tp581
Rp582
aa(lp583
g262
(g266
S'\xd6\x00\x00\x00'
p584
tp585
Rp586
ag262
(g266
S'N\x00\x00\x00'
p587
tp588
Rp589
aa(lp590
g262
(g266
S'\xea\x00\x00\x00'
p591
tp592
Rp593
ag262
(g266
S'T\x00\x00\x00'
p594
tp595
Rp596
aa(lp597
g262
(g266
S'\xfa\x00\x00\x00'
p598
tp599
Rp600
ag262
(g266
S'U\x00\x00\x00'
p601
tp602
Rp603
aa(lp604
g262
(g266
S'\x10\x00\x00\x00'
p605
tp606
Rp607
ag262
(g266
S'e\x00\x00\x00'
p608
tp609
Rp610
aa(lp611
g262
(g266
S'\x1e\x00\x00\x00'
p612
tp613
Rp614
ag262
(g266
S'h\x00\x00\x00'
p615
tp616
Rp617
aa(lp618
g262
(g266
S'<\x00\x00\x00'
p619
tp620
Rp621
ag262
(g266
S'h\x00\x00\x00'
p622
tp623
Rp624
aa(lp625
g262
(g266
S'J\x00\x00\x00'
p626
tp627
Rp628
ag262
(g266
S'h\x00\x00\x00'
p629
tp630
Rp631
aa(lp632
g262
(g266
S'c\x00\x00\x00'
p633
tp634
Rp635
ag262
(g266
S'c\x00\x00\x00'
p636
tp637
Rp638
aa(lp639
g262
(g266
S'\x80\x00\x00\x00'
p640
tp641
Rp642
ag262
(g266
S'b\x00\x00\x00'
p643
tp644
Rp645
aa(lp646
g262
(g266
S'\x95\x00\x00\x00'
p647
tp648
Rp649
ag262
(g266
S'l\x00\x00\x00'
p650
tp651
Rp652
aa(lp653
g262
(g266
S'\xa9\x00\x00\x00'
p654
tp655
Rp656
ag262
(g266
S'b\x00\x00\x00'
p657
tp658
Rp659
aa(lp660
g262
(g266
S'\xb8\x00\x00\x00'
p661
tp662
Rp663
ag262
(g266
S'n\x00\x00\x00'
p664
tp665
Rp666
aa(lp667
g262
(g266
S'\xd5\x00\x00\x00'
p668
tp669
Rp670
ag262
(g266
S'`\x00\x00\x00'
p671
tp672
Rp673
aa(lp674
g262
(g266
S'\xe4\x00\x00\x00'
p675
tp676
Rp677
ag262
(g266
S'k\x00\x00\x00'
p678
tp679
Rp680
aa(lp681
g262
(g266
S'\x00\x01\x00\x00'
p682
tp683
Rp684
ag262
(g266
S'g\x00\x00\x00'
p685
tp686
Rp687
aa(lp688
g262
(g266
S'\x10\x00\x00\x00'
p689
tp690
Rp691
ag262
(g266
S'z\x00\x00\x00'
p692
tp693
Rp694
aa(lp695
g262
(g266
S'(\x00\x00\x00'
p696
tp697
Rp698
ag262
(g266
S'w\x00\x00\x00'
p699
tp700
Rp701
aa(lp702
g262
(g266
S'9\x00\x00\x00'
p703
tp704
Rp705
ag262
(g266
S'|\x00\x00\x00'
p706
tp707
Rp708
aa(lp709
g262
(g266
S'Q\x00\x00\x00'
p710
tp711
Rp712
ag262
(g266
S'z\x00\x00\x00'
p713
tp714
Rp715
aa(lp716
g262
(g266
S'g\x00\x00\x00'
p717
tp718
Rp719
ag262
(g266
S'\x82\x00\x00\x00'
p720
tp721
Rp722
aa(lp723
g262
(g266
S'u\x00\x00\x00'
p724
tp725
Rp726
ag262
(g266
S'y\x00\x00\x00'
p727
tp728
Rp729
aa(lp730
g262
(g266
S'\x91\x00\x00\x00'
p731
tp732
Rp733
ag262
(g266
S't\x00\x00\x00'
p734
tp735
Rp736
aa(lp737
g262
(g266
S'\xa1\x00\x00\x00'
p738
tp739
Rp740
ag262
(g266
S'\x81\x00\x00\x00'
p741
tp742
Rp743
aa(lp744
g262
(g266
S'\xbf\x00\x00\x00'
p745
tp746
Rp747
ag262
(g266
S'|\x00\x00\x00'
p748
tp749
Rp750
aa(lp751
g262
(g266
S'\xc8\x00\x00\x00'
p752
tp753
Rp754
ag262
(g266
S'\x83\x00\x00\x00'
p755
tp756
Rp757
aa(lp758
g262
(g266
S'\xee\x00\x00\x00'
p759
tp760
Rp761
ag262
(g266
S'z\x00\x00\x00'
p762
tp763
Rp764
aa(lp765
g262
(g266
S'\x00\x01\x00\x00'
p766
tp767
Rp768
ag262
(g266
S'}\x00\x00\x00'
p769
tp770
Rp771
aa(lp772
g262
(g266
S'\x15\x00\x00\x00'
p773
tp774
Rp775
ag262
(g266
S'\x94\x00\x00\x00'
p776
tp777
Rp778
aa(lp779
g262
(g266
S'&\x00\x00\x00'
p780
tp781
Rp782
ag262
(g266
S'\x8c\x00\x00\x00'
p783
tp784
Rp785
aa(lp786
g262
(g266
S'5\x00\x00\x00'
p787
tp788
Rp789
ag262
(g266
S'\x98\x00\x00\x00'
p790
tp791
Rp792
aa(lp793
g262
(g266
S'P\x00\x00\x00'
p794
tp795
Rp796
ag262
(g266
S'\x96\x00\x00\x00'
p797
tp798
Rp799
aa(lp800
g262
(g266
S'g\x00\x00\x00'
p801
tp802
Rp803
ag262
(g266
S'\x8e\x00\x00\x00'
p804
tp805
Rp806
aa(lp807
g262
(g266
S'{\x00\x00\x00'
p808
tp809
Rp810
ag262
(g266
S'\x97\x00\x00\x00'
p811
tp812
Rp813
aa(lp814
g262
(g266
S'\x91\x00\x00\x00'
p815
tp816
Rp817
ag262
(g266
S'\x97\x00\x00\x00'
p818
tp819
Rp820
aa(lp821
g262
(g266
S'\xa8\x00\x00\x00'
p822
tp823
Rp824
ag262
(g266
S'\x95\x00\x00\x00'
p825
tp826
Rp827
aa(lp828
g262
(g266
S'\xbf\x00\x00\x00'
p829
tp830
Rp831
ag262
(g266
S'\x93\x00\x00\x00'
p832
tp833
Rp834
aa(lp835
g262
(g266
S'\xd8\x00\x00\x00'
p836
tp837
Rp838
ag262
(g266
S'\x94\x00\x00\x00'
p839
tp840
Rp841
aa(lp842
g262
(g266
S'\xe8\x00\x00\x00'
p843
tp844
Rp845
ag262
(g266
S'\x92\x00\x00\x00'
p846
tp847
Rp848
aa(lp849
g262
(g266
S'\x00\x01\x00\x00'
p850
tp851
Rp852
ag262
(g266
S'\x8d\x00\x00\x00'
p853
tp854
Rp855
aa(lp856
g262
(g266
S'\x10\x00\x00\x00'
p857
tp858
Rp859
ag262
(g266
S'\xa7\x00\x00\x00'
p860
tp861
Rp862
aa(lp863
g262
(g266
S')\x00\x00\x00'
p864
tp865
Rp866
ag262
(g266
S'\xa7\x00\x00\x00'
p867
tp868
Rp869
aa(lp870
g262
(g266
S'4\x00\x00\x00'
p871
tp872
Rp873
ag262
(g266
S'\xa8\x00\x00\x00'
p874
tp875
Rp876
aa(lp877
g262
(g266
S'L\x00\x00\x00'
p878
tp879
Rp880
ag262
(g266
S'\xa8\x00\x00\x00'
p881
tp882
Rp883
aa(lp884
g262
(g266
S'a\x00\x00\x00'
p885
tp886
Rp887
ag262
(g266
S'\xa8\x00\x00\x00'
p888
tp889
Rp890
aa(lp891
g262
(g266
S'}\x00\x00\x00'
p892
tp893
Rp894
ag262
(g266
S'\xa9\x00\x00\x00'
p895
tp896
Rp897
aa(lp898
g262
(g266
S'\x93\x00\x00\x00'
p899
tp900
Rp901
ag262
(g266
S'\xa9\x00\x00\x00'
p902
tp903
Rp904
aa(lp905
g262
(g266
S'\xaa\x00\x00\x00'
p906
tp907
Rp908
ag262
(g266
S'\xa8\x00\x00\x00'
p909
tp910
Rp911
aa(lp912
g262
(g266
S'\xbe\x00\x00\x00'
p913
tp914
Rp915
ag262
(g266
S'\xa4\x00\x00\x00'
p916
tp917
Rp918
aa(lp919
g262
(g266
S'\xd8\x00\x00\x00'
p920
tp921
Rp922
ag262
(g266
S'\xaa\x00\x00\x00'
p923
tp924
Rp925
aa(lp926
g262
(g266
S'\xeb\x00\x00\x00'
p927
tp928
Rp929
ag262
(g266
S'\xac\x00\x00\x00'
p930
tp931
Rp932
aa(lp933
g262
(g266
S'\x00\x01\x00\x00'
p934
tp935
Rp936
ag262
(g266
S'\xad\x00\x00\x00'
p937
tp938
Rp939
aa(lp940
g262
(g266
S'\x10\x00\x00\x00'
p941
tp942
Rp943
ag262
(g266
S'\xba\x00\x00\x00'
p944
tp945
Rp946
aa(lp947
g262
(g266
S'"\x00\x00\x00'
p948
tp949
Rp950
ag262
(g266
S'\xc1\x00\x00\x00'
p951
tp952
Rp953
aa(lp954
g262
(g266
S'A\x00\x00\x00'
p955
tp956
Rp957
ag262
(g266
S'\xbf\x00\x00\x00'
p958
tp959
Rp960
aa(lp961
g262
(g266
S'V\x00\x00\x00'
p962
tp963
Rp964
ag262
(g266
S'\xc0\x00\x00\x00'
p965
tp966
Rp967
aa(lp968
g262
(g266
S'k\x00\x00\x00'
p969
tp970
Rp971
ag262
(g266
S'\xc1\x00\x00\x00'
p972
tp973
Rp974
aa(lp975
g262
(g266
S'x\x00\x00\x00'
p976
tp977
Rp978
ag262
(g266
S'\xc0\x00\x00\x00'
p979
tp980
Rp981
aa(lp982
g262
(g266
S'\x94\x00\x00\x00'
p983
tp984
Rp985
ag262
(g266
S'\xbb\x00\x00\x00'
p986
tp987
Rp988
aa(lp989
g262
(g266
S'\xa6\x00\x00\x00'
p990
tp991
Rp992
ag262
(g266
S'\xbd\x00\x00\x00'
p993
tp994
Rp995
aa(lp996
g262
(g266
S'\xb6\x00\x00\x00'
p997
tp998
Rp999
ag262
(g266
S'\xbf\x00\x00\x00'
p1000
tp1001
Rp1002
aa(lp1003
g262
(g266
S'\xd8\x00\x00\x00'
p1004
tp1005
Rp1006
ag262
(g266
S'\xc4\x00\x00\x00'
p1007
tp1008
Rp1009
aa(lp1010
g262
(g266
S'\xf4\x00\x00\x00'
p1011
tp1012
Rp1013
ag262
(g266
S'\xba\x00\x00\x00'
p1014
tp1015
Rp1016
aa(lp1017
g262
(g266
S'\x00\x01\x00\x00'
p1018
tp1019
Rp1020
ag262
(g266
S'\xb9\x00\x00\x00'
p1021
tp1022
Rp1023
aa(lp1024
g262
(g266
S'\x15\x00\x00\x00'
p1025
tp1026
Rp1027
ag262
(g266
S'\xd2\x00\x00\x00'
p1028
tp1029
Rp1030
aa(lp1031
g262
(g266
S'"\x00\x00\x00'
p1032
tp1033
Rp1034
ag262
(g266
S'\xcc\x00\x00\x00'
p1035
tp1036
Rp1037
aa(lp1038
g262
(g266
S'>\x00\x00\x00'
p1039
tp1040
Rp1041
ag262
(g266
S'\xd2\x00\x00\x00'
p1042
tp1043
Rp1044
aa(lp1045
g262
(g266
S'K\x00\x00\x00'
p1046
tp1047
Rp1048
ag262
(g266
S'\xd7\x00\x00\x00'
p1049
tp1050
Rp1051
aa(lp1052
g262
(g266
S'c\x00\x00\x00'
p1053
tp1054
Rp1055
ag262
(g266
S'\xd2\x00\x00\x00'
p1056
tp1057
Rp1058
aa(lp1059
g262
(g266
S'z\x00\x00\x00'
p1060
tp1061
Rp1062
ag262
(g266
S'\xcf\x00\x00\x00'
p1063
tp1064
Rp1065
aa(lp1066
g262
(g266
S'\x92\x00\x00\x00'
p1067
tp1068
Rp1069
ag262
(g266
S'\xdf\x00\x00\x00'
p1070
tp1071
Rp1072
aa(lp1073
g262
(g266
S'\xac\x00\x00\x00'
p1074
tp1075
Rp1076
ag262
(g266
S'\xd4\x00\x00\x00'
p1077
tp1078
Rp1079
aa(lp1080
g262
(g266
S'\xc0\x00\x00\x00'
p1081
tp1082
Rp1083
ag262
(g266
S'\xd1\x00\x00\x00'
p1084
tp1085
Rp1086
aa(lp1087
g262
(g266
S'\xda\x00\x00\x00'
p1088
tp1089
Rp1090
ag262
(g266
S'\xd4\x00\x00\x00'
p1091
tp1092
Rp1093
aa(lp1094
g262
(g266
S'\xea\x00\x00\x00'
p1095
tp1096
Rp1097
ag262
(g266
S'\xd6\x00\x00\x00'
p1098
tp1099
Rp1100
aa(lp1101
g262
(g266
S'\x00\x01\x00\x00'
p1102
tp1103
Rp1104
ag262
(g266
S'\xd5\x00\x00\x00'
p1105
tp1106
Rp1107
aa(lp1108
g262
(g266
S'\x10\x00\x00\x00'
p1109
tp1110
Rp1111
ag262
(g266
S'\xe6\x00\x00\x00'
p1112
tp1113
Rp1114
aa(lp1115
g262
(g266
S'&\x00\x00\x00'
p1116
tp1117
Rp1118
ag262
(g266
S'\xee\x00\x00\x00'
p1119
tp1120
Rp1121
aa(lp1122
g262
(g266
S'5\x00\x00\x00'
p1123
tp1124
Rp1125
ag262
(g266
S'\xeb\x00\x00\x00'
p1126
tp1127
Rp1128
aa(lp1129
g262
(g266
S'Q\x00\x00\x00'
p1130
tp1131
Rp1132
ag262
(g266
S'\xef\x00\x00\x00'
p1133
tp1134
Rp1135
aa(lp1136
g262
(g266
S'k\x00\x00\x00'
p1137
tp1138
Rp1139
ag262
(g266
S'\xe5\x00\x00\x00'
p1140
tp1141
Rp1142
aa(lp1143
g262
(g266
S'w\x00\x00\x00'
p1144
tp1145
Rp1146
ag262
(g266
S'\xe6\x00\x00\x00'
p1147
tp1148
Rp1149
aa(lp1150
g262
(g266
S'\x8e\x00\x00\x00'
p1151
tp1152
Rp1153
ag262
(g266
S'\xe8\x00\x00\x00'
p1154
tp1155
Rp1156
aa(lp1157
g262
(g266
S'\xa0\x00\x00\x00'
p1158
tp1159
Rp1160
ag262
(g266
S'\xea\x00\x00\x00'
p1161
tp1162
Rp1163
aa(lp1164
g262
(g266
S'\xc0\x00\x00\x00'
p1165
tp1166
Rp1167
ag262
(g266
S'\xeb\x00\x00\x00'
p1168
tp1169
Rp1170
aa(lp1171
g262
(g266
S'\xd8\x00\x00\x00'
p1172
tp1173
Rp1174
ag262
(g266
S'\xe8\x00\x00\x00'
p1175
tp1176
Rp1177
aa(lp1178
g262
(g266
S'\xea\x00\x00\x00'
p1179
tp1180
Rp1181
ag262
(g266
S'\xeb\x00\x00\x00'
p1182
tp1183
Rp1184
aa(lp1185
g262
(g266
S'\x00\x01\x00\x00'
p1186
tp1187
Rp1188
ag262
(g266
S'\xed\x00\x00\x00'
p1189
tp1190
Rp1191
aa(lp1192
g262
(g266
S'\x11\x00\x00\x00'
p1193
tp1194
Rp1195
ag262
(g266
S'\x00\x01\x00\x00'
p1196
tp1197
Rp1198
aa(lp1199
g262
(g266
S'(\x00\x00\x00'
p1200
tp1201
Rp1202
ag262
(g266
S'\xfc\x00\x00\x00'
p1203
tp1204
Rp1205
aa(lp1206
g262
(g266
S'8\x00\x00\x00'
p1207
tp1208
Rp1209
ag262
(g266
S'\x00\x01\x00\x00'
p1210
tp1211
Rp1212
aa(lp1213
g262
(g266
S'Q\x00\x00\x00'
p1214
tp1215
Rp1216
ag262
(g266
S'\xf9\x00\x00\x00'
p1217
tp1218
Rp1219
aa(lp1220
g262
(g266
S'g\x00\x00\x00'
p1221
tp1222
Rp1223
ag262
(g266
S'\x00\x01\x00\x00'
p1224
tp1225
Rp1226
aa(lp1227
g262
(g266
S'|\x00\x00\x00'
p1228
tp1229
Rp1230
ag262
(g266
S'\x00\x01\x00\x00'
p1231
tp1232
Rp1233
aa(lp1234
g262
(g266
S'\x93\x00\x00\x00'
p1235
tp1236
Rp1237
ag262
(g266
S'\xff\x00\x00\x00'
p1238
tp1239
Rp1240
aa(lp1241
g262
(g266
S'\xa9\x00\x00\x00'
p1242
tp1243
Rp1244
ag262
(g266
S'\xfb\x00\x00\x00'
p1245
tp1246
Rp1247
aa(lp1248
g262
(g266
S'\xb5\x00\x00\x00'
p1249
tp1250
Rp1251
ag262
(g266
S'\xf6\x00\x00\x00'
p1252
tp1253
Rp1254
aa(lp1255
g262
(g266
S'\xd7\x00\x00\x00'
p1256
tp1257
Rp1258
ag262
(g266
S'\x00\x01\x00\x00'
p1259
tp1260
Rp1261
aa(lp1262
g262
(g266
S'\xf2\x00\x00\x00'
p1263
tp1264
Rp1265
ag262
(g266
S'\x00\x01\x00\x00'
p1266
tp1267
Rp1268
aa(lp1269
g262
(g266
S'\x00\x01\x00\x00'
p1270
tp1271
Rp1272
ag262
(g266
S'\xf7\x00\x00\x00'
p1273
tp1274
Rp1275
aa(lp1276
I137
aI131
aa(lp1277
I210
aI114
aa(lp1278
I194
aI254
aa(lp1279
I143
aI205
aa(lp1280
I58
aI50
aa(lp1281
I38
aI221
aa(lp1282
I197
aI181
aa(lp1283
I67
aI141
aa(lp1284
I160
aI17
aa(lp1285
I237
aI50
aa(lp1286
I249
aI158
aa(lp1287
I94
aI81
aa(lp1288
I218
aI130
aa(lp1289
I49
aI183
aa(lp1290
I175
aI124
aa(lp1291
I204
aI17
aa(lp1292
I48
aI16
aa(lp1293
I92
aI45
aa(lp1294
I177
aI48
aa(lp1295
I201
aI68
aa(lp1296
I235
aI198
aa(lp1297
I133
aI62
aa(lp1298
I178
aI226
aa(lp1299
I194
aI99
aa(lp1300
I91
aI229
aa(lp1301
I113
aI173
aa(lp1302
I115
aI106
aa(lp1303
I201
aI220
aa(lp1304
I92
aI113
aa(lp1305
I120
aI45
aa(lp1306
I67
aI232
aa(lp1307
I159
aI78
aa(lp1308
I127
aI242
aa(lp1309
I132
aI181
aa(lp1310
I17
aI136
aa(lp1311
I49
aI204
aa(lp1312
I70
aI256
aa(lp1313
I160
aI208
aa(lp1314
I179
aI64
aa(lp1315
I241
aI99
aa(lp1316
I253
aI199
aa(lp1317
I85
aI94
aa(lp1318
I150
aI92
aa(lp1319
I227
aI248
aa(lp1320
I48
aI100
aa(lp1321
I16
aI243
aa(lp1322
I88
aI134
aa(lp1323
I203
aI158
aa(lp1324
I255
aI30
aa(lp1325
I202
aI199
aa(lp1326
I131
aI219
aa(lp1327
I107
aI157
aa(lp1328
I124
aI135
aa(lp1329
I102
aI243
aa(lp1330
I29
aI178
aa(lp1331
I206
aI241
aa(lp1332
I247
aI226
aa(lp1333
I70
aI52
aa(lp1334
I203
aI44
aa(lp1335
I43
aI66
aa(lp1336
I32
aI155
aa(lp1337
I179
aI139
aa(lp1338
I227
aI184
aa(lp1339
I27
aI87
aa(lp1340
I92
aI180
aa(lp1341
I24
aI44
aa(lp1342
I65
aI175
aa(lp1343
I231
aI159
aa(lp1344
I163
aI112
aa(lp1345
I32
aI28
aa(lp1346
I131
aI16
aa(lp1347
I151
aI141
aa(lp1348
I133
aI115
aa(lp1349
I85
aI206
aa(lp1350
I256
aI78
aa(lp1351
I91
aI29
aa(lp1352
I159
aI159
aa(lp1353
I236
aI135
aa(lp1354
I56
aI221
aa(lp1355
I184
aI178
aa(lp1356
I17
aI198
aa(lp1357
I63
aI160
aa(lp1358
I31
aI130
aa(lp1359
I92
aI153
aa(lp1360
I143
aI48
aa(lp1361
I213
aI184
aa(lp1362
I50
aI137
aa(lp1363
I133
aI74
aa(lp1364
I244
aI71
aa(lp1365
I69
aI92
aa(lp1366
I159
aI178
aa(lp1367
I87
aI255
aa(lp1368
I111
aI216
aa(lp1369
I135
aI158
aa(lp1370
I31
aI255
aa(lp1371
I202
aI84
aa(lp1372
I135
aI197
aa(lp1373
I70
aI122
aa(lp1374
I160
aI48
aa(lp1375
I223
aI45
aasS'units'
p1376
S'seconds'
p1377
sS'identifier'
p1378
S'matmult2'
p1379
sS'os'
p1380
S'Linux-3.13-1-amd64-x86_64-with-debian-jessie-sid'
p1381
s.