(dp0
S'results'
p1
(lp2
(lp3
F2.015e-05
aa(lp4
F1.763e-05
aa(lp5
F8e-06
aa(lp6
F2.24e-05
aa(lp7
F1.121e-05
aa(lp8
F1.431e-05
aa(lp9
F6.31e-06
aa(lp10
F2.323e-05
aa(lp11
F8.37e-06
aa(lp12
F1.911e-05
aa(lp13
F1.461e-05
aa(lp14
F4.35e-06
aa(lp15
F4.28e-06
aa(lp16
F1.979e-05
aa(lp17
F8.46e-06
aa(lp18
F2.059e-05
aa(lp19
F1.401e-05
aa(lp20
F1.961e-05
aa(lp21
F1.958e-05
aa(lp22
F1.259e-05
aa(lp23
F1.148e-05
aa(lp24
F2.31e-05
aa(lp25
F1.378e-05
aa(lp26
F1.341e-05
aa(lp27
F1.777e-05
aa(lp28
F1.67e-06
aa(lp29
F1.552e-05
aa(lp30
F1.822e-05
aa(lp31
F1.377e-05
aa(lp32
F9.48e-06
aa(lp33
F1.76e-06
aa(lp34
F1.14e-05
aa(lp35
F2.249e-05
aa(lp36
F2.78e-06
aa(lp37
F8.83e-06
aa(lp38
F1.204e-05
aa(lp39
F2.134e-05
aa(lp40
F8.9e-07
aa(lp41
F1.124e-05
aa(lp42
F6.43e-06
aa(lp43
F3.43e-06
aa(lp44
F2.59e-06
aa(lp45
F2.197e-05
aa(lp46
F4.06e-06
aa(lp47
F1.905e-05
aa(lp48
F7.64e-06
aa(lp49
F1.163e-05
aa(lp50
F6.2e-07
aa(lp51
F1.863e-05
aa(lp52
F2.196e-05
aa(lp53
F1.812e-05
aa(lp54
F1.95e-05
aa(lp55
F2.011e-05
aa(lp56
F1.79e-05
aa(lp57
F1.742e-05
aa(lp58
F1.017e-05
aa(lp59
F1.825e-05
aa(lp60
F1.821e-05
aa(lp61
F3.77e-06
aa(lp62
F2.472e-05
aa(lp63
F4.71e-06
aa(lp64
F1.663e-05
aa(lp65
F3.76e-06
aa(lp66
F1.307e-05
aa(lp67
F6.3e-06
aa(lp68
F1.871e-05
aa(lp69
F9.84e-06
aa(lp70
F2.408e-05
aa(lp71
F1.634e-05
aa(lp72
F2.399e-05
aa(lp73
F3.38e-06
aa(lp74
F6.08e-06
aa(lp75
F8.8e-07
aa(lp76
F8.13e-06
aa(lp77
F1.165e-05
aa(lp78
F6e-06
aa(lp79
F1.126e-05
aa(lp80
F4.97e-06
aa(lp81
F1.731e-05
aa(lp82
F1.931e-05
aa(lp83
F1.922e-05
aa(lp84
F7.7e-06
aa(lp85
F1.491e-05
aa(lp86
F3.08e-06
aa(lp87
F1.243e-05
aa(lp88
F1.76e-06
aa(lp89
F4.99e-06
aa(lp90
F1.315e-05
aa(lp91
F2.224e-05
aa(lp92
F8.47e-06
aa(lp93
F1.415e-05
aa(lp94
F1.524e-05
aa(lp95
F1.169e-05
aa(lp96
F1.252e-05
aa(lp97
F2.406e-05
aa(lp98
F1.029e-05
aa(lp99
F1.75e-06
aa(lp100
F9.67e-06
aa(lp101
F6.38e-06
aa(lp102
F5.49e-06
aa(lp103
F2.365e-05
aa(lp104
F1.7e-06
aa(lp105
F1.337e-05
aa(lp106
F1.921e-05
aa(lp107
F1.24e-05
aa(lp108
F9.88e-06
aa(lp109
F1.894e-05
aa(lp110
F1.73e-06
aa(lp111
F2.333e-05
aa(lp112
F8.32e-06
aa(lp113
F2.055e-05
aa(lp114
F5.88e-06
aa(lp115
F8.99e-06
aa(lp116
F8.08e-06
aa(lp117
F1.511e-05
aa(lp118
F1.98e-05
aa(lp119
F1.498e-05
aa(lp120
F1.889e-05
aa(lp121
F7.63e-06
aa(lp122
F1.7e-05
aa(lp123
F5.16e-06
aa(lp124
F9.26e-06
aa(lp125
F1.457e-05
aa(lp126
F2.13e-06
aa(lp127
F8.54e-06
aa(lp128
F2.79e-06
aa(lp129
F2.7e-06
aa(lp130
F4.66e-06
aa(lp131
F1.33e-06
aa(lp132
F1.36e-06
aa(lp133
F2.03e-05
aa(lp134
F4.02e-06
aa(lp135
F2.153e-05
aa(lp136
F1.288e-05
aa(lp137
F5.1e-06
aa(lp138
F1.861e-05
aa(lp139
F2.004e-05
aa(lp140
F1.907e-05
aa(lp141
F1.4e-06
aa(lp142
F2.131e-05
aa(lp143
F1.975e-05
aa(lp144
F1.992e-05
aa(lp145
F7.68e-06
aa(lp146
F2.436e-05
aa(lp147
F1.997e-05
aa(lp148
F1.567e-05
aa(lp149
F1.804e-05
aa(lp150
F1.114e-05
aa(lp151
F5.32e-06
aa(lp152
F4.84e-06
aa(lp153
F1.86e-05
aa(lp154
F1.722e-05
aa(lp155
F5e-07
aa(lp156
F4.3e-06
aa(lp157
F1.58e-05
aa(lp158
F7.5e-07
aa(lp159
F2.184e-05
aa(lp160
F1.331e-05
aa(lp161
F1.21e-06
aa(lp162
F1.171e-05
aa(lp163
F1.998e-05
aa(lp164
F1.287e-05
aa(lp165
F9.12e-06
aa(lp166
F4.84e-06
aa(lp167
F2.481e-05
aa(lp168
F9.33e-06
aa(lp169
F1.117e-05
aa(lp170
F1.097e-05
aa(lp171
F3.1e-07
aa(lp172
F6.31e-06
aa(lp173
F1.131e-05
aa(lp174
F1.32e-05
aa(lp175
F1.493e-05
aa(lp176
F1.873e-05
aa(lp177
F1.695e-05
aa(lp178
F1.902e-05
aa(lp179
F6.63e-06
aa(lp180
F1.737e-05
aa(lp181
F4.9e-07
aa(lp182
F8.8e-06
aa(lp183
F6.6e-07
aa(lp184
F2.174e-05
aa(lp185
F1.54e-05
aa(lp186
F1.897e-05
aa(lp187
F1.433e-05
aa(lp188
F1.573e-05
aa(lp189
F2.164e-05
aa(lp190
F1.523e-05
aa(lp191
F5.25e-06
aa(lp192
F2.459e-05
aa(lp193
F1.542e-05
aa(lp194
F2.48e-05
aa(lp195
F2.01e-06
aa(lp196
F3.53e-06
aa(lp197
F1.23e-05
aa(lp198
F2.296e-05
aa(lp199
F1.027e-05
aa(lp200
F1.014e-05
aa(lp201
F2.22e-06
aa(lp202
F3.52e-06
aasS'month'
p203
I11
sS'argument tags'
p204
(lp205
S'N'
p206
aS'-'
p207
asS'year'
p208
I2014
sS'arch'
p209
S'x86_64'
p210
sS'day'
p211
I18
sS'result tags'
p212
(lp213
S'Run Time'
p214
asS'arguments'
p215
(lp216
(lp217
I3439
aI3439
aa(lp218
I3001
aI3001
aa(lp219
I1377
aI1377
aa(lp220
I3800
aI3800
aa(lp221
I1915
aI1915
aa(lp222
I2456
aI2456
aa(lp223
I1081
aI1081
aa(lp224
I3954
aI3954
aa(lp225
I1443
aI1443
aa(lp226
I3265
aI3265
aa(lp227
I2480
aI2480
aa(lp228
I749
aI749
aa(lp229
I731
aI731
aa(lp230
I3371
aI3371
aa(lp231
I1457
aI1457
aa(lp232
I3513
aI3513
aa(lp233
I2377
aI2377
aa(lp234
I3266
aI3266
aa(lp235
I3196
aI3196
aa(lp236
I2069
aI2069
aa(lp237
I1893
aI1893
aa(lp238
I3786
aI3786
aa(lp239
I2258
aI2258
aa(lp240
I2210
aI2210
aa(lp241
I2925
aI2925
aa(lp242
I274
aI274
aa(lp243
I2529
aI2529
aa(lp244
I2984
aI2984
aa(lp245
I2256
aI2256
aa(lp246
I1562
aI1562
aa(lp247
I288
aI288
aa(lp248
I1880
aI1880
aa(lp249
I3700
aI3700
aa(lp250
I458
aI458
aa(lp251
I1459
aI1459
aa(lp252
I1984
aI1984
aa(lp253
I3490
aI3490
aa(lp254
I144
aI144
aa(lp255
I1855
aI1855
aa(lp256
I1062
aI1062
aa(lp257
I564
aI564
aa(lp258
I425
aI425
aa(lp259
I3622
aI3622
aa(lp260
I669
aI669
aa(lp261
I3125
aI3125
aa(lp262
I1258
aI1258
aa(lp263
I1922
aI1922
aa(lp264
I100
aI100
aa(lp265
I3058
aI3058
aa(lp266
I3610
aI3610
aa(lp267
I2966
aI2966
aa(lp268
I3167
aI3167
aa(lp269
I3307
aI3307
aa(lp270
I2929
aI2929
aa(lp271
I2843
aI2843
aa(lp272
I1677
aI1677
aa(lp273
I2985
aI2985
aa(lp274
I2982
aI2982
aa(lp275
I622
aI622
aa(lp276
I4048
aI4048
aa(lp277
I774
aI774
aa(lp278
I2746
aI2746
aa(lp279
I620
aI620
aa(lp280
I2149
aI2149
aa(lp281
I1038
aI1038
aa(lp282
I3062
aI3062
aa(lp283
I1623
aI1623
aa(lp284
I3947
aI3947
aa(lp285
I2694
aI2694
aa(lp286
I3926
aI3926
aa(lp287
I556
aI556
aa(lp288
I1002
aI1002
aa(lp289
I143
aI143
aa(lp290
I1333
aI1333
aa(lp291
I1920
aI1920
aa(lp292
I990
aI990
aa(lp293
I1854
aI1854
aa(lp294
I817
aI817
aa(lp295
I2837
aI2837
aa(lp296
I3176
aI3176
aa(lp297
I3151
aI3151
aa(lp298
I1267
aI1267
aa(lp299
I2443
aI2443
aa(lp300
I507
aI507
aa(lp301
I2048
aI2048
aa(lp302
I289
aI289
aa(lp303
I821
aI821
aa(lp304
I2167
aI2167
aa(lp305
I3668
aI3668
aa(lp306
I1389
aI1389
aa(lp307
I2319
aI2319
aa(lp308
I2498
aI2498
aa(lp309
I1927
aI1927
aa(lp310
I2063
aI2063
aa(lp311
I3942
aI3942
aa(lp312
I1696
aI1696
aa(lp313
I286
aI286
aa(lp314
I1597
aI1597
aa(lp315
I1049
aI1049
aa(lp316
I903
aI903
aa(lp317
I3869
aI3869
aa(lp318
I279
aI279
aa(lp319
I2187
aI2187
aa(lp320
I3147
aI3147
aa(lp321
I2039
aI2039
aa(lp322
I1627
aI1627
aa(lp323
I3095
aI3095
aa(lp324
I283
aI283
aa(lp325
I3817
aI3817
aa(lp326
I1370
aI1370
aa(lp327
I3354
aI3354
aa(lp328
I969
aI969
aa(lp329
I1482
aI1482
aa(lp330
I1332
aI1332
aa(lp331
I2493
aI2493
aa(lp332
I3243
aI3243
aa(lp333
I2452
aI2452
aa(lp334
I3088
aI3088
aa(lp335
I1255
aI1255
aa(lp336
I2802
aI2802
aa(lp337
I844
aI844
aa(lp338
I1526
aI1526
aa(lp339
I2387
aI2387
aa(lp340
I350
aI350
aa(lp341
I1408
aI1408
aa(lp342
I459
aI459
aa(lp343
I444
aI444
aa(lp344
I766
aI766
aa(lp345
I218
aI218
aa(lp346
I223
aI223
aa(lp347
I3321
aI3321
aa(lp348
I662
aI662
aa(lp349
I3529
aI3529
aa(lp350
I2111
aI2111
aa(lp351
I837
aI837
aa(lp352
I3051
aI3051
aa(lp353
I3294
aI3294
aa(lp354
I3137
aI3137
aa(lp355
I229
aI229
aa(lp356
I3488
aI3488
aa(lp357
I3245
aI3245
aa(lp358
I3262
aI3262
aa(lp359
I1261
aI1261
aa(lp360
I3985
aI3985
aa(lp361
I3263
aI3263
aa(lp362
I2577
aI2577
aa(lp363
I2972
aI2972
aa(lp364
I1838
aI1838
aa(lp365
I875
aI875
aa(lp366
I798
aI798
aa(lp367
I3042
aI3042
aa(lp368
I2840
aI2840
aa(lp369
I81
aI81
aa(lp370
I707
aI707
aa(lp371
I2598
aI2598
aa(lp372
I121
aI121
aa(lp373
I3591
aI3591
aa(lp374
I2196
aI2196
aa(lp375
I197
aI197
aa(lp376
I1928
aI1928
aa(lp377
I3270
aI3270
aa(lp378
I2105
aI2105
aa(lp379
I1504
aI1504
aa(lp380
I796
aI796
aa(lp381
I4071
aI4071
aa(lp382
I1534
aI1534
aa(lp383
I1840
aI1840
aa(lp384
I1792
aI1792
aa(lp385
I49
aI49
aa(lp386
I739
aI739
aa(lp387
I1863
aI1863
aa(lp388
I2169
aI2169
aa(lp389
I2464
aI2464
aa(lp390
I3064
aI3064
aa(lp391
I2797
aI2797
aa(lp392
I3126
aI3126
aa(lp393
I1093
aI1093
aa(lp394
I2859
aI2859
aa(lp395
I79
aI79
aa(lp396
I1449
aI1449
aa(lp397
I107
aI107
aa(lp398
I3557
aI3557
aa(lp399
I2519
aI2519
aa(lp400
I3109
aI3109
aa(lp401
I2340
aI2340
aa(lp402
I2556
aI2556
aa(lp403
I3544
aI3544
aa(lp404
I2494
aI2494
aa(lp405
I864
aI864
aa(lp406
I4038
aI4038
aa(lp407
I2525
aI2525
aa(lp408
I4065
aI4065
aa(lp409
I329
aI329
aa(lp410
I580
aI580
aa(lp411
I2026
aI2026
aa(lp412
I3758
aI3758
aa(lp413
I1691
aI1691
aa(lp414
I1671
aI1671
aa(lp415
I365
aI365
aa(lp416
I578
aI578
aasS'units'
p417
S'seconds'
p418
sS'identifier'
p419
S'tilera-dot-product'
p420
sS'os'
p421
S'Linux-2.6.32-358.23.2.el6.x86_64-x86_64-with-redhat-6.4-Santiago'
p422
s.