(dp0
S'results'
p1
(lp2
(lp3
F1.314e-05
aa(lp4
F2.635e-05
aa(lp5
F2.858e-05
aa(lp6
F1.242e-05
aa(lp7
F2.65e-06
aa(lp8
F8.16e-06
aa(lp9
F1.26e-06
aa(lp10
F2.106e-05
aa(lp11
F1.052e-05
aa(lp12
F2.557e-05
aa(lp13
F2.45e-05
aa(lp14
F2.387e-05
aa(lp15
F1.674e-05
aa(lp16
F9.17e-06
aa(lp17
F4.78e-06
aa(lp18
F4.91e-06
aa(lp19
F1.758e-05
aa(lp20
F5.54e-06
aa(lp21
F2.787e-05
aa(lp22
F9.06e-06
aa(lp23
F2.28e-05
aa(lp24
F1.966e-05
aa(lp25
F1.416e-05
aa(lp26
F1.181e-05
aa(lp27
F1.667e-05
aa(lp28
F2.059e-05
aa(lp29
F2.569e-05
aa(lp30
F9.34e-06
aa(lp31
F1.344e-05
aa(lp32
F2.343e-05
aa(lp33
F2.242e-05
aa(lp34
F2.578e-05
aa(lp35
F2.737e-05
aa(lp36
F1.653e-05
aa(lp37
F4.9e-06
aa(lp38
F1.424e-05
aa(lp39
F5.99e-06
aa(lp40
F2.533e-05
aa(lp41
F2.318e-05
aa(lp42
F3.27e-06
aa(lp43
F1e-07
aa(lp44
F9.59e-06
aa(lp45
F2.318e-05
aa(lp46
F2.259e-05
aa(lp47
F2.49e-05
aa(lp48
F9.7e-07
aa(lp49
F1.12e-06
aa(lp50
F1.027e-05
aa(lp51
F1.951e-05
aa(lp52
F2.818e-05
aa(lp53
F2.698e-05
aa(lp54
F4.73e-06
aa(lp55
F5.47e-06
aa(lp56
F1.592e-05
aa(lp57
F1.613e-05
aa(lp58
F1.042e-05
aa(lp59
F1.646e-05
aa(lp60
F3.73e-06
aa(lp61
F8.22e-06
aa(lp62
F1.817e-05
aa(lp63
F1.671e-05
aa(lp64
F6.62e-06
aa(lp65
F7.91e-06
aa(lp66
F1.056e-05
aa(lp67
F1.01e-05
aa(lp68
F2.696e-05
aa(lp69
F2.778e-05
aa(lp70
F5.23e-06
aa(lp71
F1.755e-05
aa(lp72
F1.377e-05
aa(lp73
F9e-06
aa(lp74
F3.4e-06
aa(lp75
F2.847e-05
aa(lp76
F1.223e-05
aa(lp77
F2.5e-07
aa(lp78
F2.737e-05
aa(lp79
F4.59e-06
aa(lp80
F6.3e-06
aa(lp81
F4.45e-06
aa(lp82
F1.393e-05
aa(lp83
F2.063e-05
aa(lp84
F4.32e-06
aa(lp85
F2.466e-05
aa(lp86
F1.026e-05
aa(lp87
F1.935e-05
aa(lp88
F9.8e-06
aa(lp89
F2.763e-05
aa(lp90
F1.969e-05
aa(lp91
F1.366e-05
aa(lp92
F1.176e-05
aa(lp93
F2.257e-05
aa(lp94
F2.25e-06
aa(lp95
F2.066e-05
aa(lp96
F2.43e-06
aa(lp97
F1.478e-05
aa(lp98
F1.901e-05
aa(lp99
F3.42e-06
aa(lp100
F8.69e-06
aa(lp101
F2.526e-05
aa(lp102
F9.46e-06
aa(lp103
F1.87e-05
aa(lp104
F2.395e-05
aa(lp105
F8.81e-06
aa(lp106
F7.1e-06
aa(lp107
F1.826e-05
aa(lp108
F2.024e-05
aa(lp109
F2.603e-05
aa(lp110
F2.09e-05
aa(lp111
F7.88e-06
aa(lp112
F2.253e-05
aa(lp113
F2.371e-05
aa(lp114
F1.726e-05
aa(lp115
F2.498e-05
aa(lp116
F4.61e-06
aa(lp117
F6.85e-06
aa(lp118
F1.236e-05
aa(lp119
F2.177e-05
aa(lp120
F1.558e-05
aa(lp121
F2.354e-05
aa(lp122
F1.563e-05
aa(lp123
F2.508e-05
aa(lp124
F1.858e-05
aa(lp125
F1.651e-05
aa(lp126
F1.519e-05
aa(lp127
F2.559e-05
aa(lp128
F2.226e-05
aa(lp129
F9.91e-06
aa(lp130
F2.678e-05
aa(lp131
F1.07e-06
aa(lp132
F1.643e-05
aa(lp133
F2.445e-05
aa(lp134
F1.606e-05
aa(lp135
F1.859e-05
aa(lp136
F2.661e-05
aa(lp137
F8.34e-06
aa(lp138
F7.94e-06
aa(lp139
F1.282e-05
aa(lp140
F1.21e-06
aa(lp141
F5.69e-06
aa(lp142
F1.845e-05
aa(lp143
F1.59e-06
aa(lp144
F1.12e-06
aa(lp145
F6.36e-06
aa(lp146
F2.575e-05
aa(lp147
F9.49e-06
aa(lp148
F1.268e-05
aa(lp149
F7.44e-06
aa(lp150
F1.052e-05
aa(lp151
F1.347e-05
aa(lp152
F2.065e-05
aa(lp153
F9.06e-06
aa(lp154
F2.698e-05
aa(lp155
F1.914e-05
aa(lp156
F1.52e-06
aa(lp157
F1.912e-05
aa(lp158
F2.847e-05
aa(lp159
F1.894e-05
aa(lp160
F1.157e-05
aa(lp161
F1.446e-05
aa(lp162
F2.071e-05
aa(lp163
F5.3e-06
aa(lp164
F1.398e-05
aa(lp165
F1.91e-06
aa(lp166
F1.007e-05
aa(lp167
F4.27e-06
aa(lp168
F1.471e-05
aa(lp169
F2.358e-05
aa(lp170
F2.345e-05
aa(lp171
F3.93e-06
aa(lp172
F1.11e-06
aa(lp173
F2.034e-05
aa(lp174
F3.51e-06
aa(lp175
F2.256e-05
aa(lp176
F1.762e-05
aa(lp177
F8.3e-07
aa(lp178
F4.02e-06
aa(lp179
F1.736e-05
aa(lp180
F7.8e-06
aa(lp181
F1.956e-05
aa(lp182
F2.114e-05
aa(lp183
F1.542e-05
aa(lp184
F2.587e-05
aa(lp185
F2.715e-05
aa(lp186
F1.68e-05
aa(lp187
F9.21e-06
aa(lp188
F2.66e-06
aa(lp189
F2.84e-06
aa(lp190
F8.65e-06
aa(lp191
F1.817e-05
aa(lp192
F1.974e-05
aa(lp193
F2.72e-05
aa(lp194
F1.547e-05
aa(lp195
F1.747e-05
aa(lp196
F2.53e-05
aa(lp197
F1.95e-05
aa(lp198
F4.93e-06
aa(lp199
F1.272e-05
aa(lp200
F2.3e-05
aa(lp201
F1.7e-07
aa(lp202
F2.464e-05
aasS'month'
p203
I11
sS'argument tags'
p204
(lp205
S'N'
p206
aS'-'
p207
asS'year'
p208
I2014
sS'arch'
p209
S'x86_64'
p210
sS'day'
p211
I18
sS'result tags'
p212
(lp213
S'Run Time'
p214
asS'arguments'
p215
(lp216
(lp217
I1767
aI1767
aa(lp218
I3814
aI3814
aa(lp219
I4076
aI4076
aa(lp220
I2036
aI2036
aa(lp221
I417
aI417
aa(lp222
I1318
aI1318
aa(lp223
I197
aI197
aa(lp224
I3042
aI3042
aa(lp225
I1418
aI1418
aa(lp226
I3483
aI3483
aa(lp227
I3481
aI3481
aa(lp228
I3288
aI3288
aa(lp229
I2477
aI2477
aa(lp230
I1457
aI1457
aa(lp231
I754
aI754
aa(lp232
I766
aI766
aa(lp233
I2565
aI2565
aa(lp234
I880
aI880
aa(lp235
I3937
aI3937
aa(lp236
I1484
aI1484
aa(lp237
I3317
aI3317
aa(lp238
I3130
aI3130
aa(lp239
I2232
aI2232
aa(lp240
I1789
aI1789
aa(lp241
I2405
aI2405
aa(lp242
I3206
aI3206
aa(lp243
I3515
aI3515
aa(lp244
I1473
aI1473
aa(lp245
I1846
aI1846
aa(lp246
I3336
aI3336
aa(lp247
I3323
aI3323
aa(lp248
I3657
aI3657
aa(lp249
I4041
aI4041
aa(lp250
I2595
aI2595
aa(lp251
I769
aI769
aa(lp252
I2260
aI2260
aa(lp253
I946
aI946
aa(lp254
I3563
aI3563
aa(lp255
I3265
aI3265
aa(lp256
I516
aI516
aa(lp257
I13
aI13
aa(lp258
I1546
aI1546
aa(lp259
I3409
aI3409
aa(lp260
I3286
aI3286
aa(lp261
I3642
aI3642
aa(lp262
I151
aI151
aa(lp263
I176
aI176
aa(lp264
I1618
aI1618
aa(lp265
I2855
aI2855
aa(lp266
I3925
aI3925
aa(lp267
I3946
aI3946
aa(lp268
I751
aI751
aa(lp269
I867
aI867
aa(lp270
I2531
aI2531
aa(lp271
I2346
aI2346
aa(lp272
I1620
aI1620
aa(lp273
I2616
aI2616
aa(lp274
I586
aI586
aa(lp275
I1304
aI1304
aa(lp276
I2796
aI2796
aa(lp277
I2605
aI2605
aa(lp278
I1039
aI1039
aa(lp279
I1256
aI1256
aa(lp280
I1671
aI1671
aa(lp281
I1593
aI1593
aa(lp282
I3785
aI3785
aa(lp283
I3964
aI3964
aa(lp284
I823
aI823
aa(lp285
I2766
aI2766
aa(lp286
I2032
aI2032
aa(lp287
I1433
aI1433
aa(lp288
I539
aI539
aa(lp289
I4060
aI4060
aa(lp290
I1962
aI1962
aa(lp291
I37
aI37
aa(lp292
I3891
aI3891
aa(lp293
I743
aI743
aa(lp294
I999
aI999
aa(lp295
I701
aI701
aa(lp296
I2217
aI2217
aa(lp297
I2996
aI2996
aa(lp298
I681
aI681
aa(lp299
I3627
aI3627
aa(lp300
I1634
aI1634
aa(lp301
I3047
aI3047
aa(lp302
I1339
aI1339
aa(lp303
I4083
aI4083
aa(lp304
I2895
aI2895
aa(lp305
I2131
aI2131
aa(lp306
I1867
aI1867
aa(lp307
I3185
aI3185
aa(lp308
I355
aI355
aa(lp309
I2993
aI2993
aa(lp310
I384
aI384
aa(lp311
I2320
aI2320
aa(lp312
I2755
aI2755
aa(lp313
I548
aI548
aa(lp314
I1387
aI1387
aa(lp315
I3729
aI3729
aa(lp316
I1341
aI1341
aa(lp317
I2660
aI2660
aa(lp318
I3490
aI3490
aa(lp319
I1297
aI1297
aa(lp320
I1124
aI1124
aa(lp321
I2919
aI2919
aa(lp322
I2827
aI2827
aa(lp323
I3707
aI3707
aa(lp324
I2953
aI2953
aa(lp325
I1247
aI1247
aa(lp326
I3591
aI3591
aa(lp327
I3393
aI3393
aa(lp328
I2506
aI2506
aa(lp329
I3629
aI3629
aa(lp330
I726
aI726
aa(lp331
I1100
aI1100
aa(lp332
I1906
aI1906
aa(lp333
I3337
aI3337
aa(lp334
I2512
aI2512
aa(lp335
I3565
aI3565
aa(lp336
I2239
aI2239
aa(lp337
I3693
aI3693
aa(lp338
I2955
aI2955
aa(lp339
I2328
aI2328
aa(lp340
I2206
aI2206
aa(lp341
I3816
aI3816
aa(lp342
I3155
aI3155
aa(lp343
I1602
aI1602
aa(lp344
I3782
aI3782
aa(lp345
I166
aI166
aa(lp346
I2614
aI2614
aa(lp347
I3594
aI3594
aa(lp348
I2594
aI2594
aa(lp349
I2948
aI2948
aa(lp350
I3982
aI3982
aa(lp351
I1331
aI1331
aa(lp352
I1255
aI1255
aa(lp353
I1993
aI1993
aa(lp354
I191
aI191
aa(lp355
I903
aI903
aa(lp356
I3030
aI3030
aa(lp357
I253
aI253
aa(lp358
I177
aI177
aa(lp359
I1037
aI1037
aa(lp360
I3673
aI3673
aa(lp361
I1487
aI1487
aa(lp362
I1753
aI1753
aa(lp363
I1178
aI1178
aa(lp364
I1682
aI1682
aa(lp365
I2165
aI2165
aa(lp366
I3295
aI3295
aa(lp367
I1443
aI1443
aa(lp368
I3968
aI3968
aa(lp369
I3048
aI3048
aa(lp370
I241
aI241
aa(lp371
I2567
aI2567
aa(lp372
I3943
aI3943
aa(lp373
I2708
aI2708
aa(lp374
I1835
aI1835
aa(lp375
I2315
aI2315
aa(lp376
I2912
aI2912
aa(lp377
I847
aI847
aa(lp378
I2225
aI2225
aa(lp379
I301
aI301
aa(lp380
I1644
aI1644
aa(lp381
I676
aI676
aa(lp382
I2343
aI2343
aa(lp383
I3396
aI3396
aa(lp384
I3686
aI3686
aa(lp385
I615
aI615
aa(lp386
I175
aI175
aa(lp387
I3005
aI3005
aa(lp388
I553
aI553
aa(lp389
I3221
aI3221
aa(lp390
I2590
aI2590
aa(lp391
I131
aI131
aa(lp392
I640
aI640
aa(lp393
I2681
aI2681
aa(lp394
I1238
aI1238
aa(lp395
I2859
aI2859
aa(lp396
I2942
aI2942
aa(lp397
I2469
aI2469
aa(lp398
I3678
aI3678
aa(lp399
I3978
aI3978
aa(lp400
I2685
aI2685
aa(lp401
I1458
aI1458
aa(lp402
I423
aI423
aa(lp403
I450
aI450
aa(lp404
I1372
aI1372
aa(lp405
I2899
aI2899
aa(lp406
I2941
aI2941
aa(lp407
I3836
aI3836
aa(lp408
I2490
aI2490
aa(lp409
I2799
aI2799
aa(lp410
I3674
aI3674
aa(lp411
I3102
aI3102
aa(lp412
I789
aI789
aa(lp413
I2022
aI2022
aa(lp414
I3379
aI3379
aa(lp415
I24
aI24
aa(lp416
I3695
aI3695
aasS'units'
p417
S'seconds'
p418
sS'identifier'
p419
S'tilera-dot-product'
p420
sS'os'
p421
S'CYGWIN_NT-6.1-1.7.32-0.274-5-3-x86_64-64bit'
p422
s.