(dp0
S'results'
p1
(lp2
(lp3
F6.3e-07
aa(lp4
F1.29e-06
aa(lp5
F2.09e-06
aa(lp6
F2.11e-06
aa(lp7
F3.73e-06
aa(lp8
F3.2e-06
aa(lp9
F1.037e-05
aa(lp10
F6.92e-06
aa(lp11
F8.27e-06
aa(lp12
F5.28e-06
aa(lp13
F7.31e-06
aa(lp14
F9.67e-06
aa(lp15
F1.208e-05
aa(lp16
F7.35e-06
aa(lp17
F2.468e-05
aa(lp18
F1.481e-05
aa(lp19
F1.715e-05
aa(lp20
F9.5e-06
aa(lp21
F1.267e-05
aa(lp22
F3.783e-05
aa(lp23
F1.945e-05
aa(lp24
F2.783e-05
aa(lp25
F1.621e-05
aa(lp26
F2.228e-05
aa(lp27
F5.47e-06
aa(lp28
F0.00010882
aa(lp29
F0.00021182
aa(lp30
F0.00033737
aa(lp31
F0.00046854
aa(lp32
F0.00064294
aa(lp33
F0.00069755
aa(lp34
F0.00071099
aa(lp35
F0.00097522
aa(lp36
F0.00113758
aa(lp37
F0.00109626
aa(lp38
F0.0012104
aa(lp39
F0.0013254
aa(lp40
F0.00145259
aa(lp41
F0.00143034
aa(lp42
F0.00176847
aa(lp43
F0.00149488
aa(lp44
F0.00160253
aa(lp45
F0.00168074
aa(lp46
F0.00248774
aa(lp47
F0.0022087
aa(lp48
F0.00254928
aa(lp49
F0.00247676
aa(lp50
F0.00233032
aa(lp51
F1.807e-05
aa(lp52
F0.00040166
aa(lp53
F0.00085465
aa(lp54
F0.001144
aa(lp55
F0.00152543
aa(lp56
F0.00197575
aa(lp57
F0.00248237
aa(lp58
F0.00286626
aa(lp59
F0.00303018
aa(lp60
F0.00341501
aa(lp61
F0.00393771
aa(lp62
F0.00435509
aa(lp63
F0.00528593
aa(lp64
F0.00598911
aa(lp65
F0.00614033
aa(lp66
F0.00571699
aa(lp67
F0.00636726
aa(lp68
F0.00668338
aa(lp69
F0.00674046
aa(lp70
F0.00911546
aa(lp71
F0.00947825
aa(lp72
F0.0096897
aa(lp73
F0.00868721
aa(lp74
F0.00812079
aa(lp75
F3.538e-05
aa(lp76
F0.00081219
aa(lp77
F0.00162792
aa(lp78
F0.00248099
aa(lp79
F0.00325643
aa(lp80
F0.0040508
aa(lp81
F0.00540632
aa(lp82
F0.00584579
aa(lp83
F0.00770187
aa(lp84
F0.00754229
aa(lp85
F0.00829418
aa(lp86
F0.0086025
aa(lp87
F0.00943641
aa(lp88
F0.0104787
aa(lp89
F0.01162383
aa(lp90
F0.0124907
aa(lp91
F0.01585579
aa(lp92
F0.0174161
aa(lp93
F0.01898849
aa(lp94
F0.02000607
aa(lp95
F0.01535552
aa(lp96
F0.0164892
aa(lp97
F0.02174713
aa(lp98
F0.01926485
aa(lp99
F6.245e-05
aa(lp100
F0.00139141
aa(lp101
F0.00282808
aa(lp102
F0.00442679
aa(lp103
F0.00575659
aa(lp104
F0.00697558
aa(lp105
F0.00867808
aa(lp106
F0.00971215
aa(lp107
F0.01233569
aa(lp108
F0.01284955
aa(lp109
F0.01559604
aa(lp110
F0.01622235
aa(lp111
F0.01789883
aa(lp112
F0.02045444
aa(lp113
F0.02055491
aa(lp114
F0.02330721
aa(lp115
F0.02231379
aa(lp116
F0.02338403
aa(lp117
F0.0283963
aa(lp118
F0.03447394
aa(lp119
F0.03424029
aa(lp120
F0.02946181
aa(lp121
F0.03674569
aa(lp122
F0.03872117
aa(lp123
F0.00010201
aa(lp124
F0.00221335
aa(lp125
F0.00447905
aa(lp126
F0.00674803
aa(lp127
F0.00936806
aa(lp128
F0.01183331
aa(lp129
F0.01342476
aa(lp130
F0.01584289
aa(lp131
F0.01808825
aa(lp132
F0.02039637
aa(lp133
F0.024216
aa(lp134
F0.02496235
aa(lp135
F0.02950979
aa(lp136
F0.02820505
aa(lp137
F0.03427756
aa(lp138
F0.03621336
aa(lp139
F0.0352543
aa(lp140
F0.04306373
aa(lp141
F0.04894588
aa(lp142
F0.04641633
aa(lp143
F0.04444911
aa(lp144
F0.04796608
aa(lp145
F0.05311767
aa(lp146
F0.06106631
aa(lp147
F0.00014437
aa(lp148
F0.00330432
aa(lp149
F0.00668657
aa(lp150
F0.0094124
aa(lp151
F0.01346791
aa(lp152
F0.01602972
aa(lp153
F0.01973065
aa(lp154
F0.02371242
aa(lp155
F0.02623911
aa(lp156
F0.02892036
aa(lp157
F0.03221398
aa(lp158
F0.0371622
aa(lp159
F0.04109527
aa(lp160
F0.04090499
aa(lp161
F0.04951312
aa(lp162
F0.04855995
aa(lp163
F0.0561661
aa(lp164
F0.05892617
aa(lp165
F0.0656565
aa(lp166
F0.07063858
aa(lp167
F0.0652943
aa(lp168
F0.07479808
aa(lp169
F0.07877733
aa(lp170
F0.07507187
aa(lp171
F0.00019763
aa(lp172
F0.00447734
aa(lp173
F0.00893472
aa(lp174
F0.01405084
aa(lp175
F0.01767109
aa(lp176
F0.02359199
aa(lp177
F0.027475
aa(lp178
F0.03093303
aa(lp179
F0.03756095
aa(lp180
F0.0398457
aa(lp181
F0.04641353
aa(lp182
F0.05286124
aa(lp183
F0.05406794
aa(lp184
F0.0596944
aa(lp185
F0.0666831
aa(lp186
F0.07087629
aa(lp187
F0.07403579
aa(lp188
F0.083072
aa(lp189
F0.07934642
aa(lp190
F0.08546911
aa(lp191
F0.09352322
aa(lp192
F0.10544479
aa(lp193
F0.10634496
aa(lp194
F0.10388292
aa(lp195
F0.00025098
aa(lp196
F0.00601674
aa(lp197
F0.01193944
aa(lp198
F0.01755088
aa(lp199
F0.02419797
aa(lp200
F0.02928498
aa(lp201
F0.03560002
aa(lp202
F0.04184604
aa(lp203
F0.04657688
aa(lp204
F0.05447425
aa(lp205
F0.05749615
aa(lp206
F0.06372866
aa(lp207
F0.07200114
aa(lp208
F0.07704032
aa(lp209
F0.08174896
aa(lp210
F0.09099121
aa(lp211
F0.09300028
aa(lp212
F0.10483011
aa(lp213
F0.10393572
aa(lp214
F0.11074367
aa(lp215
F0.11962583
aa(lp216
F0.13045838
aa(lp217
F0.13612354
aa(lp218
F0.14479833
aa(lp219
F0.00032813
aa(lp220
F0.00790149
aa(lp221
F0.01497031
aa(lp222
F0.02264045
aa(lp223
F0.03063818
aa(lp224
F0.0397463
aa(lp225
F0.04625224
aa(lp226
F0.0526645
aa(lp227
F0.05993948
aa(lp228
F0.06871723
aa(lp229
F0.07729758
aa(lp230
F0.08612371
aa(lp231
F0.08868803
aa(lp232
F0.10202775
aa(lp233
F0.1094034
aa(lp234
F0.11760347
aa(lp235
F0.11783008
aa(lp236
F0.12591511
aa(lp237
F0.13301566
aa(lp238
F0.15536767
aa(lp239
F0.16456029
aa(lp240
F0.15753112
aa(lp241
F0.16585534
aa(lp242
F0.18323975
aa(lp243
F0.00040236
aa(lp244
F0.00943345
aa(lp245
F0.01825341
aa(lp246
F0.0277814
aa(lp247
F0.03761569
aa(lp248
F0.0470459
aa(lp249
F0.05423767
aa(lp250
F0.06439077
aa(lp251
F0.0764033
aa(lp252
F0.08271851
aa(lp253
F0.09658518
aa(lp254
F0.10356035
aa(lp255
F0.10814763
aa(lp256
F0.11945288
aa(lp257
F0.12819578
aa(lp258
F0.1388987
aa(lp259
F0.14642175
aa(lp260
F0.16596058
aa(lp261
F0.16725996
aa(lp262
F0.18160841
aa(lp263
F0.18845125
aa(lp264
F0.20810213
aa(lp265
F0.21519354
aa(lp266
F0.21878483
aa(lp267
F0.00049541
aa(lp268
F0.01211953
aa(lp269
F0.02335463
aa(lp270
F0.03453098
aa(lp271
F0.04461813
aa(lp272
F0.05642175
aa(lp273
F0.06619582
aa(lp274
F0.07857548
aa(lp275
F0.09029256
aa(lp276
F0.10440237
aa(lp277
F0.11371608
aa(lp278
F0.12328672
aa(lp279
F0.13296844
aa(lp280
F0.1530025
aa(lp281
F0.15318564
aa(lp282
F0.17779411
aa(lp283
F0.17721922
aa(lp284
F0.19877496
aa(lp285
F0.20274113
aa(lp286
F0.21778038
aa(lp287
F0.23499913
aa(lp288
F0.24324079
aa(lp289
F0.24533504
aa(lp290
F0.25926409
aa(lp291
F0.00059055
aa(lp292
F0.01241821
aa(lp293
F0.0266181
aa(lp294
F0.04168345
aa(lp295
F0.05333523
aa(lp296
F0.06685194
aa(lp297
F0.08016704
aa(lp298
F0.0943008
aa(lp299
F0.10796259
aa(lp300
F0.12052789
aa(lp301
F0.13450742
aa(lp302
F0.14839957
aa(lp303
F0.16239227
aa(lp304
F0.17177447
aa(lp305
F0.19352108
aa(lp306
F0.20121153
aa(lp307
F0.21696808
aa(lp308
F0.22997658
aa(lp309
F0.23758004
aa(lp310
F0.25313662
aa(lp311
F0.26832542
aa(lp312
F0.28568821
aa(lp313
F0.29894416
aa(lp314
F0.3305715
aa(lp315
F0.00070602
aa(lp316
F0.01534246
aa(lp317
F0.03217992
aa(lp318
F0.04860382
aa(lp319
F0.06507943
aa(lp320
F0.07928084
aa(lp321
F0.09638367
aa(lp322
F0.11528974
aa(lp323
F0.12944607
aa(lp324
F0.14075951
aa(lp325
F0.15894965
aa(lp326
F0.17299123
aa(lp327
F0.19176429
aa(lp328
F0.20762469
aa(lp329
F0.22199178
aa(lp330
F0.23759917
aa(lp331
F0.26084896
aa(lp332
F0.26957542
aa(lp333
F0.29607591
aa(lp334
F0.30688142
aa(lp335
F0.32175392
aa(lp336
F0.34239546
aa(lp337
F0.37395109
aa(lp338
F0.38718009
aa(lp339
F0.00082109
aa(lp340
F0.01886608
aa(lp341
F0.03720448
aa(lp342
F0.05717566
aa(lp343
F0.0744376
aa(lp344
F0.09080067
aa(lp345
F0.11073349
aa(lp346
F0.13060746
aa(lp347
F0.1474604
aa(lp348
F0.16589758
aa(lp349
F0.18463707
aa(lp350
F0.20610506
aa(lp351
F0.22586328
aa(lp352
F0.248413
aa(lp353
F0.26370067
aa(lp354
F0.28559592
aa(lp355
F0.30141404
aa(lp356
F0.31390004
aa(lp357
F0.33385908
aa(lp358
F0.35288663
aa(lp359
F0.37006533
aa(lp360
F0.42257234
aa(lp361
F0.42836892
aa(lp362
F0.42192575
aa(lp363
F0.00094347
aa(lp364
F0.02275058
aa(lp365
F0.04317601
aa(lp366
F0.06448859
aa(lp367
F0.08541222
aa(lp368
F0.10971512
aa(lp369
F0.12625303
aa(lp370
F0.15071523
aa(lp371
F0.17536062
aa(lp372
F0.19621197
aa(lp373
F0.21808596
aa(lp374
F0.23993467
aa(lp375
F0.26637222
aa(lp376
F0.28361789
aa(lp377
F0.30365692
aa(lp378
F0.31921779
aa(lp379
F0.3472805
aa(lp380
F0.36733329
aa(lp381
F0.384771
aa(lp382
F0.41974546
aa(lp383
F0.44825359
aa(lp384
F0.45567375
aa(lp385
F0.46511259
aa(lp386
F0.51304325
aa(lp387
F0.0010737
aa(lp388
F0.02494401
aa(lp389
F0.04835745
aa(lp390
F0.07132213
aa(lp391
F0.09837821
aa(lp392
F0.12153599
aa(lp393
F0.14603955
aa(lp394
F0.16888174
aa(lp395
F0.2006337
aa(lp396
F0.22252362
aa(lp397
F0.25031329
aa(lp398
F0.28082017
aa(lp399
F0.30104203
aa(lp400
F0.32252981
aa(lp401
F0.34333588
aa(lp402
F0.36831163
aa(lp403
F0.39325463
aa(lp404
F0.42345838
aa(lp405
F0.44476171
aa(lp406
F0.467876
aa(lp407
F0.50749541
aa(lp408
F0.53113941
aa(lp409
F0.53677059
aa(lp410
F0.57445316
aa(lp411
F0.00121556
aa(lp412
F0.02923017
aa(lp413
F0.05921823
aa(lp414
F0.08527454
aa(lp415
F0.11314468
aa(lp416
F0.13904568
aa(lp417
F0.16627065
aa(lp418
F0.19720516
aa(lp419
F0.22687121
aa(lp420
F0.25222568
aa(lp421
F0.28172986
aa(lp422
F0.30811209
aa(lp423
F0.34513817
aa(lp424
F0.37261433
aa(lp425
F0.4030323
aa(lp426
F0.42125517
aa(lp427
F0.45991496
aa(lp428
F0.47342388
aa(lp429
F0.49720596
aa(lp430
F0.53052925
aa(lp431
F0.58571459
aa(lp432
F0.58090459
aa(lp433
F0.605587
aa(lp434
F0.66694059
aa(lp435
F0.0013687
aa(lp436
F0.0346781
aa(lp437
F0.06428788
aa(lp438
F0.09301879
aa(lp439
F0.1282904
aa(lp440
F0.15658274
aa(lp441
F0.18496261
aa(lp442
F0.21956126
aa(lp443
F0.255416
aa(lp444
F0.28420575
aa(lp445
F0.31451125
aa(lp446
F0.34040311
aa(lp447
F0.37596792
aa(lp448
F0.41446408
aa(lp449
F0.44006483
aa(lp450
F0.47902909
aa(lp451
F0.50635871
aa(lp452
F0.53942
aa(lp453
F0.57954425
aa(lp454
F0.58862434
aa(lp455
F0.628358
aa(lp456
F0.67354016
aa(lp457
F0.70756467
aa(lp458
F0.75261483
aa(lp459
F0.00155316
aa(lp460
F0.03801677
aa(lp461
F0.07006525
aa(lp462
F0.10190635
aa(lp463
F0.13340239
aa(lp464
F0.17346088
aa(lp465
F0.20881196
aa(lp466
F0.24305496
aa(lp467
F0.27560009
aa(lp468
F0.31399458
aa(lp469
F0.34296386
aa(lp470
F0.38697597
aa(lp471
F0.41301831
aa(lp472
F0.44804513
aa(lp473
F0.488504
aa(lp474
F0.51853783
aa(lp475
F0.54879646
aa(lp476
F0.58535363
aa(lp477
F0.62308816
aa(lp478
F0.66581417
aa(lp479
F0.69453975
aa(lp480
F0.73489633
aa(lp481
F0.76507317
aa(lp482
F0.79349625
aa(lp483
F0.00168223
aa(lp484
F0.04033799
aa(lp485
F0.07803301
aa(lp486
F0.11612626
aa(lp487
F0.15472595
aa(lp488
F0.18819253
aa(lp489
F0.23315696
aa(lp490
F0.27183889
aa(lp491
F0.30726212
aa(lp492
F0.35148181
aa(lp493
F0.38426653
aa(lp494
F0.42141983
aa(lp495
F0.46213529
aa(lp496
F0.505419
aa(lp497
F0.5356075
aa(lp498
F0.57174188
aa(lp499
F0.61276721
aa(lp500
F0.668301
aa(lp501
F0.72271408
aa(lp502
F0.73951142
aa(lp503
F0.79598183
aa(lp504
F0.8090065
aa(lp505
F0.84438275
aa(lp506
F0.9003831
aa(lp507
F0.00555608
aa(lp508
F0.04305894
aa(lp509
F0.0832979
aa(lp510
F0.12747728
aa(lp511
F0.16672612
aa(lp512
F0.2094466
aa(lp513
F0.26047662
aa(lp514
F0.29587032
aa(lp515
F0.34291602
aa(lp516
F0.38731979
aa(lp517
F0.42392994
aa(lp518
F0.46440931
aa(lp519
F0.51573075
aa(lp520
F0.54764221
aa(lp521
F0.58761633
aa(lp522
F0.64472995
aa(lp523
F0.68804662
aa(lp524
F0.71801109
aa(lp525
F0.75890341
aa(lp526
F0.814946
aa(lp527
F0.86209058
aa(lp528
F0.91170125
aa(lp529
F0.92660634
aa(lp530
F0.96868868
aa(lp531
F0.00206911
aa(lp532
F0.0475564
aa(lp533
F0.09479288
aa(lp534
F0.14041441
aa(lp535
F0.1934044
aa(lp536
F0.23654151
aa(lp537
F0.28506627
aa(lp538
F0.32384821
aa(lp539
F0.37276587
aa(lp540
F0.41521254
aa(lp541
F0.47865975
aa(lp542
F0.50926347
aa(lp543
F0.57007067
aa(lp544
F0.60544783
aa(lp545
F0.65897659
aa(lp546
F0.69098958
aa(lp547
F0.75261809
aa(lp548
F0.80491208
aa(lp549
F0.85303475
aa(lp550
F0.90541266
aa(lp551
F0.94114325
aa(lp552
F0.98340458
aa(lp553
F1.02660484
aa(lp554
F1.06299917
aa(lp555
F0.00225378
aa(lp556
F0.05176446
aa(lp557
F0.10125646
aa(lp558
F0.15508614
aa(lp559
F0.20585183
aa(lp560
F0.25600459
aa(lp561
F0.30565714
aa(lp562
F0.35606104
aa(lp563
F0.41305423
aa(lp564
F0.45889819
aa(lp565
F0.50951261
aa(lp566
F0.56710817
aa(lp567
F0.61674992
aa(lp568
F0.66603187
aa(lp569
F0.72807788
aa(lp570
F0.76526221
aa(lp571
F0.82591675
aa(lp572
F0.86334892
aa(lp573
F0.92309001
aa(lp574
F0.99048684
aa(lp575
F1.01926307
aa(lp576
F1.08366509
aa(lp577
F1.11813199
aa(lp578
F1.19908025
aasS'month'
p579
I11
sS'argument tags'
p580
(lp581
S'M'
p582
aS'N'
p583
asS'year'
p584
I2014
sS'arch'
p585
S'x86_64'
p586
sS'day'
p587
I18
sS'result tags'
p588
(lp589
S'Run Time'
p590
asS'arguments'
p591
(lp592
(lp593
cnumpy.core.multiarray
scalar
p594
(cnumpy
dtype
p595
(S'i4'
p596
I0
I1
tp597
Rp598
(I3
S'<'
p599
NNNI-1
I-1
I0
tp600
bS'\x01\x00\x00\x00'
p601
tp602
Rp603
ag594
(g598
S'\x01\x00\x00\x00'
p604
tp605
Rp606
aa(lp607
g594
(g598
S'\x17\x00\x00\x00'
p608
tp609
Rp610
ag594
(g598
S'\x01\x00\x00\x00'
p611
tp612
Rp613
aa(lp614
g594
(g598
S',\x00\x00\x00'
p615
tp616
Rp617
ag594
(g598
S'\x01\x00\x00\x00'
p618
tp619
Rp620
aa(lp621
g594
(g598
S'D\x00\x00\x00'
p622
tp623
Rp624
ag594
(g598
S'\x01\x00\x00\x00'
p625
tp626
Rp627
aa(lp628
g594
(g598
S'Z\x00\x00\x00'
p629
tp630
Rp631
ag594
(g598
S'\x01\x00\x00\x00'
p632
tp633
Rp634
aa(lp635
g594
(g598
S's\x00\x00\x00'
p636
tp637
Rp638
ag594
(g598
S'\x01\x00\x00\x00'
p639
tp640
Rp641
aa(lp642
g594
(g598
S'\x88\x00\x00\x00'
p643
tp644
Rp645
ag594
(g598
S'\x02\x00\x00\x00'
p646
tp647
Rp648
aa(lp649
g594
(g598
S'\x9f\x00\x00\x00'
p650
tp651
Rp652
ag594
(g598
S'\x01\x00\x00\x00'
p653
tp654
Rp655
aa(lp656
g594
(g598
S'\xb4\x00\x00\x00'
p657
tp658
Rp659
ag594
(g598
S'\x01\x00\x00\x00'
p660
tp661
Rp662
aa(lp663
g594
(g598
S'\xcc\x00\x00\x00'
p664
tp665
Rp666
ag594
(g598
S'\x01\x00\x00\x00'
p667
tp668
Rp669
aa(lp670
g594
(g598
S'\xe2\x00\x00\x00'
p671
tp672
Rp673
ag594
(g598
S'\x01\x00\x00\x00'
p674
tp675
Rp676
aa(lp677
g594
(g598
S'\xfa\x00\x00\x00'
p678
tp679
Rp680
ag594
(g598
S'\x01\x00\x00\x00'
p681
tp682
Rp683
aa(lp684
g594
(g598
S'\x10\x01\x00\x00'
p685
tp686
Rp687
ag594
(g598
S'\x01\x00\x00\x00'
p688
tp689
Rp690
aa(lp691
g594
(g598
S'%\x01\x00\x00'
p692
tp693
Rp694
ag594
(g598
S'\x01\x00\x00\x00'
p695
tp696
Rp697
aa(lp698
g594
(g598
S'<\x01\x00\x00'
p699
tp700
Rp701
ag594
(g598
S'\x02\x00\x00\x00'
p702
tp703
Rp704
aa(lp705
g594
(g598
S'T\x01\x00\x00'
p706
tp707
Rp708
ag594
(g598
S'\x01\x00\x00\x00'
p709
tp710
Rp711
aa(lp712
g594
(g598
S'j\x01\x00\x00'
p713
tp714
Rp715
ag594
(g598
S'\x01\x00\x00\x00'
p716
tp717
Rp718
aa(lp719
g594
(g598
S'\x81\x01\x00\x00'
p720
tp721
Rp722
ag594
(g598
S'\x01\x00\x00\x00'
p723
tp724
Rp725
aa(lp726
g594
(g598
S'\x97\x01\x00\x00'
p727
tp728
Rp729
ag594
(g598
S'\x01\x00\x00\x00'
p730
tp731
Rp732
aa(lp733
g594
(g598
S'\xac\x01\x00\x00'
p734
tp735
Rp736
ag594
(g598
S'\x02\x00\x00\x00'
p737
tp738
Rp739
aa(lp740
g594
(g598
S'\xc4\x01\x00\x00'
p741
tp742
Rp743
ag594
(g598
S'\x01\x00\x00\x00'
p744
tp745
Rp746
aa(lp747
g594
(g598
S'\xdb\x01\x00\x00'
p748
tp749
Rp750
ag594
(g598
S'\x02\x00\x00\x00'
p751
tp752
Rp753
aa(lp754
g594
(g598
S'\xf1\x01\x00\x00'
p755
tp756
Rp757
ag594
(g598
S'\x01\x00\x00\x00'
p758
tp759
Rp760
aa(lp761
g594
(g598
S'\x08\x02\x00\x00'
p762
tp763
Rp764
ag594
(g598
S'\x01\x00\x00\x00'
p765
tp766
Rp767
aa(lp768
g594
(g598
S'\x01\x00\x00\x00'
p769
tp770
Rp771
ag594
(g598
S'\x18\x00\x00\x00'
p772
tp773
Rp774
aa(lp775
g594
(g598
S'\x17\x00\x00\x00'
p776
tp777
Rp778
ag594
(g598
S'\x17\x00\x00\x00'
p779
tp780
Rp781
aa(lp782
g594
(g598
S'.\x00\x00\x00'
p783
tp784
Rp785
ag594
(g598
S'\x17\x00\x00\x00'
p786
tp787
Rp788
aa(lp789
g594
(g598
S'E\x00\x00\x00'
p790
tp791
Rp792
ag594
(g598
S'\x17\x00\x00\x00'
p793
tp794
Rp795
aa(lp796
g594
(g598
S'Z\x00\x00\x00'
p797
tp798
Rp799
ag594
(g598
S'\x17\x00\x00\x00'
p800
tp801
Rp802
aa(lp803
g594
(g598
S'r\x00\x00\x00'
p804
tp805
Rp806
ag594
(g598
S'\x19\x00\x00\x00'
p807
tp808
Rp809
aa(lp810
g594
(g598
S'\x88\x00\x00\x00'
p811
tp812
Rp813
ag594
(g598
S'\x18\x00\x00\x00'
p814
tp815
Rp816
aa(lp817
g594
(g598
S'\x9f\x00\x00\x00'
p818
tp819
Rp820
ag594
(g598
S'\x17\x00\x00\x00'
p821
tp822
Rp823
aa(lp824
g594
(g598
S'\xb6\x00\x00\x00'
p825
tp826
Rp827
ag594
(g598
S'\x17\x00\x00\x00'
p828
tp829
Rp830
aa(lp831
g594
(g598
S'\xcd\x00\x00\x00'
p832
tp833
Rp834
ag594
(g598
S'\x16\x00\x00\x00'
p835
tp836
Rp837
aa(lp838
g594
(g598
S'\xe1\x00\x00\x00'
p839
tp840
Rp841
ag594
(g598
S'\x18\x00\x00\x00'
p842
tp843
Rp844
aa(lp845
g594
(g598
S'\xf9\x00\x00\x00'
p846
tp847
Rp848
ag594
(g598
S'\x18\x00\x00\x00'
p849
tp850
Rp851
aa(lp852
g594
(g598
S'\x11\x01\x00\x00'
p853
tp854
Rp855
ag594
(g598
S'\x18\x00\x00\x00'
p856
tp857
Rp858
aa(lp859
g594
(g598
S'&\x01\x00\x00'
p860
tp861
Rp862
ag594
(g598
S'\x16\x00\x00\x00'
p863
tp864
Rp865
aa(lp866
g594
(g598
S'<\x01\x00\x00'
p867
tp868
Rp869
ag594
(g598
S'\x15\x00\x00\x00'
p870
tp871
Rp872
aa(lp873
g594
(g598
S'S\x01\x00\x00'
p874
tp875
Rp876
ag594
(g598
S'\x16\x00\x00\x00'
p877
tp878
Rp879
aa(lp880
g594
(g598
S'j\x01\x00\x00'
p881
tp882
Rp883
ag594
(g598
S'\x16\x00\x00\x00'
p884
tp885
Rp886
aa(lp887
g594
(g598
S'\x81\x01\x00\x00'
p888
tp889
Rp890
ag594
(g598
S'\x16\x00\x00\x00'
p891
tp892
Rp893
aa(lp894
g594
(g598
S'\x97\x01\x00\x00'
p895
tp896
Rp897
ag594
(g598
S'\x16\x00\x00\x00'
p898
tp899
Rp900
aa(lp901
g594
(g598
S'\xaf\x01\x00\x00'
p902
tp903
Rp904
ag594
(g598
S'\x19\x00\x00\x00'
p905
tp906
Rp907
aa(lp908
g594
(g598
S'\xc4\x01\x00\x00'
p909
tp910
Rp911
ag594
(g598
S'\x18\x00\x00\x00'
p912
tp913
Rp914
aa(lp915
g594
(g598
S'\xdb\x01\x00\x00'
p916
tp917
Rp918
ag594
(g598
S'\x17\x00\x00\x00'
p919
tp920
Rp921
aa(lp922
g594
(g598
S'\xf2\x01\x00\x00'
p923
tp924
Rp925
ag594
(g598
S'\x16\x00\x00\x00'
p926
tp927
Rp928
aa(lp929
g594
(g598
S'\x08\x02\x00\x00'
p930
tp931
Rp932
ag594
(g598
S'\x17\x00\x00\x00'
p933
tp934
Rp935
aa(lp936
g594
(g598
S'\x01\x00\x00\x00'
p937
tp938
Rp939
ag594
(g598
S'/\x00\x00\x00'
p940
tp941
Rp942
aa(lp943
g594
(g598
S'\x18\x00\x00\x00'
p944
tp945
Rp946
ag594
(g598
S'.\x00\x00\x00'
p947
tp948
Rp949
aa(lp950
g594
(g598
S',\x00\x00\x00'
p951
tp952
Rp953
ag594
(g598
S'0\x00\x00\x00'
p954
tp955
Rp956
aa(lp957
g594
(g598
S'F\x00\x00\x00'
p958
tp959
Rp960
ag594
(g598
S'-\x00\x00\x00'
p961
tp962
Rp963
aa(lp964
g594
(g598
S'[\x00\x00\x00'
p965
tp966
Rp967
ag594
(g598
S'-\x00\x00\x00'
p968
tp969
Rp970
aa(lp971
g594
(g598
S'q\x00\x00\x00'
p972
tp973
Rp974
ag594
(g598
S'.\x00\x00\x00'
p975
tp976
Rp977
aa(lp978
g594
(g598
S'\x89\x00\x00\x00'
p979
tp980
Rp981
ag594
(g598
S'-\x00\x00\x00'
p982
tp983
Rp984
aa(lp985
g594
(g598
S'\x9f\x00\x00\x00'
p986
tp987
Rp988
ag594
(g598
S'.\x00\x00\x00'
p989
tp990
Rp991
aa(lp992
g594
(g598
S'\xb5\x00\x00\x00'
p993
tp994
Rp995
ag594
(g598
S'-\x00\x00\x00'
p996
tp997
Rp998
aa(lp999
g594
(g598
S'\xcb\x00\x00\x00'
p1000
tp1001
Rp1002
ag594
(g598
S'.\x00\x00\x00'
p1003
tp1004
Rp1005
aa(lp1006
g594
(g598
S'\xe3\x00\x00\x00'
p1007
tp1008
Rp1009
ag594
(g598
S'.\x00\x00\x00'
p1010
tp1011
Rp1012
aa(lp1013
g594
(g598
S'\xf9\x00\x00\x00'
p1014
tp1015
Rp1016
ag594
(g598
S'.\x00\x00\x00'
p1017
tp1018
Rp1019
aa(lp1020
g594
(g598
S'\x0e\x01\x00\x00'
p1021
tp1022
Rp1023
ag594
(g598
S'.\x00\x00\x00'
p1024
tp1025
Rp1026
aa(lp1027
g594
(g598
S'&\x01\x00\x00'
p1028
tp1029
Rp1030
ag594
(g598
S'.\x00\x00\x00'
p1031
tp1032
Rp1033
aa(lp1034
g594
(g598
S'<\x01\x00\x00'
p1035
tp1036
Rp1037
ag594
(g598
S',\x00\x00\x00'
p1038
tp1039
Rp1040
aa(lp1041
g594
(g598
S'S\x01\x00\x00'
p1042
tp1043
Rp1044
ag594
(g598
S'.\x00\x00\x00'
p1045
tp1046
Rp1047
aa(lp1048
g594
(g598
S'j\x01\x00\x00'
p1049
tp1050
Rp1051
ag594
(g598
S'.\x00\x00\x00'
p1052
tp1053
Rp1054
aa(lp1055
g594
(g598
S'\x7f\x01\x00\x00'
p1056
tp1057
Rp1058
ag594
(g598
S'/\x00\x00\x00'
p1059
tp1060
Rp1061
aa(lp1062
g594
(g598
S'\x96\x01\x00\x00'
p1063
tp1064
Rp1065
ag594
(g598
S'-\x00\x00\x00'
p1066
tp1067
Rp1068
aa(lp1069
g594
(g598
S'\xae\x01\x00\x00'
p1070
tp1071
Rp1072
ag594
(g598
S'.\x00\x00\x00'
p1073
tp1074
Rp1075
aa(lp1076
g594
(g598
S'\xc5\x01\x00\x00'
p1077
tp1078
Rp1079
ag594
(g598
S'/\x00\x00\x00'
p1080
tp1081
Rp1082
aa(lp1083
g594
(g598
S'\xda\x01\x00\x00'
p1084
tp1085
Rp1086
ag594
(g598
S'-\x00\x00\x00'
p1087
tp1088
Rp1089
aa(lp1090
g594
(g598
S'\xf1\x01\x00\x00'
p1091
tp1092
Rp1093
ag594
(g598
S'/\x00\x00\x00'
p1094
tp1095
Rp1096
aa(lp1097
g594
(g598
S'\x07\x02\x00\x00'
p1098
tp1099
Rp1100
ag594
(g598
S',\x00\x00\x00'
p1101
tp1102
Rp1103
aa(lp1104
g594
(g598
S'\x01\x00\x00\x00'
p1105
tp1106
Rp1107
ag594
(g598
S'C\x00\x00\x00'
p1108
tp1109
Rp1110
aa(lp1111
g594
(g598
S'\x17\x00\x00\x00'
p1112
tp1113
Rp1114
ag594
(g598
S'C\x00\x00\x00'
p1115
tp1116
Rp1117
aa(lp1118
g594
(g598
S'-\x00\x00\x00'
p1119
tp1120
Rp1121
ag594
(g598
S'D\x00\x00\x00'
p1122
tp1123
Rp1124
aa(lp1125
g594
(g598
S'C\x00\x00\x00'
p1126
tp1127
Rp1128
ag594
(g598
S'D\x00\x00\x00'
p1129
tp1130
Rp1131
aa(lp1132
g594
(g598
S'Y\x00\x00\x00'
p1133
tp1134
Rp1135
ag594
(g598
S'D\x00\x00\x00'
p1136
tp1137
Rp1138
aa(lp1139
g594
(g598
S'r\x00\x00\x00'
p1140
tp1141
Rp1142
ag594
(g598
S'C\x00\x00\x00'
p1143
tp1144
Rp1145
aa(lp1146
g594
(g598
S'\x87\x00\x00\x00'
p1147
tp1148
Rp1149
ag594
(g598
S'E\x00\x00\x00'
p1150
tp1151
Rp1152
aa(lp1153
g594
(g598
S'\x9f\x00\x00\x00'
p1154
tp1155
Rp1156
ag594
(g598
S'E\x00\x00\x00'
p1157
tp1158
Rp1159
aa(lp1160
g594
(g598
S'\xb6\x00\x00\x00'
p1161
tp1162
Rp1163
ag594
(g598
S'G\x00\x00\x00'
p1164
tp1165
Rp1166
aa(lp1167
g594
(g598
S'\xcd\x00\x00\x00'
p1168
tp1169
Rp1170
ag594
(g598
S'E\x00\x00\x00'
p1171
tp1172
Rp1173
aa(lp1174
g594
(g598
S'\xe2\x00\x00\x00'
p1175
tp1176
Rp1177
ag594
(g598
S'D\x00\x00\x00'
p1178
tp1179
Rp1180
aa(lp1181
g594
(g598
S'\xf8\x00\x00\x00'
p1182
tp1183
Rp1184
ag594
(g598
S'C\x00\x00\x00'
p1185
tp1186
Rp1187
aa(lp1188
g594
(g598
S'\x10\x01\x00\x00'
p1189
tp1190
Rp1191
ag594
(g598
S'C\x00\x00\x00'
p1192
tp1193
Rp1194
aa(lp1195
g594
(g598
S'%\x01\x00\x00'
p1196
tp1197
Rp1198
ag594
(g598
S'D\x00\x00\x00'
p1199
tp1200
Rp1201
aa(lp1202
g594
(g598
S';\x01\x00\x00'
p1203
tp1204
Rp1205
ag594
(g598
S'E\x00\x00\x00'
p1206
tp1207
Rp1208
aa(lp1209
g594
(g598
S'S\x01\x00\x00'
p1210
tp1211
Rp1212
ag594
(g598
S'E\x00\x00\x00'
p1213
tp1214
Rp1215
aa(lp1216
g594
(g598
S'i\x01\x00\x00'
p1217
tp1218
Rp1219
ag594
(g598
S'F\x00\x00\x00'
p1220
tp1221
Rp1222
aa(lp1223
g594
(g598
S'\x80\x01\x00\x00'
p1224
tp1225
Rp1226
ag594
(g598
S'F\x00\x00\x00'
p1227
tp1228
Rp1229
aa(lp1230
g594
(g598
S'\x98\x01\x00\x00'
p1231
tp1232
Rp1233
ag594
(g598
S'E\x00\x00\x00'
p1234
tp1235
Rp1236
aa(lp1237
g594
(g598
S'\xac\x01\x00\x00'
p1238
tp1239
Rp1240
ag594
(g598
S'B\x00\x00\x00'
p1241
tp1242
Rp1243
aa(lp1244
g594
(g598
S'\xc4\x01\x00\x00'
p1245
tp1246
Rp1247
ag594
(g598
S'B\x00\x00\x00'
p1248
tp1249
Rp1250
aa(lp1251
g594
(g598
S'\xda\x01\x00\x00'
p1252
tp1253
Rp1254
ag594
(g598
S'C\x00\x00\x00'
p1255
tp1256
Rp1257
aa(lp1258
g594
(g598
S'\xf0\x01\x00\x00'
p1259
tp1260
Rp1261
ag594
(g598
S'F\x00\x00\x00'
p1262
tp1263
Rp1264
aa(lp1265
g594
(g598
S'\x06\x02\x00\x00'
p1266
tp1267
Rp1268
ag594
(g598
S'E\x00\x00\x00'
p1269
tp1270
Rp1271
aa(lp1272
g594
(g598
S'\x01\x00\x00\x00'
p1273
tp1274
Rp1275
ag594
(g598
S'Z\x00\x00\x00'
p1276
tp1277
Rp1278
aa(lp1279
g594
(g598
S'\x16\x00\x00\x00'
p1280
tp1281
Rp1282
ag594
(g598
S'[\x00\x00\x00'
p1283
tp1284
Rp1285
aa(lp1286
g594
(g598
S'-\x00\x00\x00'
p1287
tp1288
Rp1289
ag594
(g598
S'Z\x00\x00\x00'
p1290
tp1291
Rp1292
aa(lp1293
g594
(g598
S'D\x00\x00\x00'
p1294
tp1295
Rp1296
ag594
(g598
S'[\x00\x00\x00'
p1297
tp1298
Rp1299
aa(lp1300
g594
(g598
S'Z\x00\x00\x00'
p1301
tp1302
Rp1303
ag594
(g598
S'Y\x00\x00\x00'
p1304
tp1305
Rp1306
aa(lp1307
g594
(g598
S's\x00\x00\x00'
p1308
tp1309
Rp1310
ag594
(g598
S'Y\x00\x00\x00'
p1311
tp1312
Rp1313
aa(lp1314
g594
(g598
S'\x86\x00\x00\x00'
p1315
tp1316
Rp1317
ag594
(g598
S'\\\x00\x00\x00'
p1318
tp1319
Rp1320
aa(lp1321
g594
(g598
S'\x9c\x00\x00\x00'
p1322
tp1323
Rp1324
ag594
(g598
S'Z\x00\x00\x00'
p1325
tp1326
Rp1327
aa(lp1328
g594
(g598
S'\xb6\x00\x00\x00'
p1329
tp1330
Rp1331
ag594
(g598
S'Z\x00\x00\x00'
p1332
tp1333
Rp1334
aa(lp1335
g594
(g598
S'\xcb\x00\x00\x00'
p1336
tp1337
Rp1338
ag594
(g598
S'[\x00\x00\x00'
p1339
tp1340
Rp1341
aa(lp1342
g594
(g598
S'\xe0\x00\x00\x00'
p1343
tp1344
Rp1345
ag594
(g598
S'Z\x00\x00\x00'
p1346
tp1347
Rp1348
aa(lp1349
g594
(g598
S'\xf8\x00\x00\x00'
p1350
tp1351
Rp1352
ag594
(g598
S'[\x00\x00\x00'
p1353
tp1354
Rp1355
aa(lp1356
g594
(g598
S'\x0f\x01\x00\x00'
p1357
tp1358
Rp1359
ag594
(g598
S']\x00\x00\x00'
p1360
tp1361
Rp1362
aa(lp1363
g594
(g598
S'&\x01\x00\x00'
p1364
tp1365
Rp1366
ag594
(g598
S'[\x00\x00\x00'
p1367
tp1368
Rp1369
aa(lp1370
g594
(g598
S'=\x01\x00\x00'
p1371
tp1372
Rp1373
ag594
(g598
S'\\\x00\x00\x00'
p1374
tp1375
Rp1376
aa(lp1377
g594
(g598
S'T\x01\x00\x00'
p1378
tp1379
Rp1380
ag594
(g598
S'[\x00\x00\x00'
p1381
tp1382
Rp1383
aa(lp1384
g594
(g598
S'h\x01\x00\x00'
p1385
tp1386
Rp1387
ag594
(g598
S'Z\x00\x00\x00'
p1388
tp1389
Rp1390
aa(lp1391
g594
(g598
S'\x81\x01\x00\x00'
p1392
tp1393
Rp1394
ag594
(g598
S'Y\x00\x00\x00'
p1395
tp1396
Rp1397
aa(lp1398
g594
(g598
S'\x99\x01\x00\x00'
p1399
tp1400
Rp1401
ag594
(g598
S'[\x00\x00\x00'
p1402
tp1403
Rp1404
aa(lp1405
g594
(g598
S'\xae\x01\x00\x00'
p1406
tp1407
Rp1408
ag594
(g598
S'[\x00\x00\x00'
p1409
tp1410
Rp1411
aa(lp1412
g594
(g598
S'\xc4\x01\x00\x00'
p1413
tp1414
Rp1415
ag594
(g598
S'[\x00\x00\x00'
p1416
tp1417
Rp1418
aa(lp1419
g594
(g598
S'\xda\x01\x00\x00'
p1420
tp1421
Rp1422
ag594
(g598
S'Z\x00\x00\x00'
p1423
tp1424
Rp1425
aa(lp1426
g594
(g598
S'\xf0\x01\x00\x00'
p1427
tp1428
Rp1429
ag594
(g598
S'Z\x00\x00\x00'
p1430
tp1431
Rp1432
aa(lp1433
g594
(g598
S'\x07\x02\x00\x00'
p1434
tp1435
Rp1436
ag594
(g598
S'Z\x00\x00\x00'
p1437
tp1438
Rp1439
aa(lp1440
g594
(g598
S'\x01\x00\x00\x00'
p1441
tp1442
Rp1443
ag594
(g598
S's\x00\x00\x00'
p1444
tp1445
Rp1446
aa(lp1447
g594
(g598
S'\x16\x00\x00\x00'
p1448
tp1449
Rp1450
ag594
(g598
S'r\x00\x00\x00'
p1451
tp1452
Rp1453
aa(lp1454
g594
(g598
S'-\x00\x00\x00'
p1455
tp1456
Rp1457
ag594
(g598
S'r\x00\x00\x00'
p1458
tp1459
Rp1460
aa(lp1461
g594
(g598
S'E\x00\x00\x00'
p1462
tp1463
Rp1464
ag594
(g598
S'q\x00\x00\x00'
p1465
tp1466
Rp1467
aa(lp1468
g594
(g598
S'[\x00\x00\x00'
p1469
tp1470
Rp1471
ag594
(g598
S'r\x00\x00\x00'
p1472
tp1473
Rp1474
aa(lp1475
g594
(g598
S't\x00\x00\x00'
p1476
tp1477
Rp1478
ag594
(g598
S'q\x00\x00\x00'
p1479
tp1480
Rp1481
aa(lp1482
g594
(g598
S'\x87\x00\x00\x00'
p1483
tp1484
Rp1485
ag594
(g598
S'r\x00\x00\x00'
p1486
tp1487
Rp1488
aa(lp1489
g594
(g598
S'\x9d\x00\x00\x00'
p1490
tp1491
Rp1492
ag594
(g598
S's\x00\x00\x00'
p1493
tp1494
Rp1495
aa(lp1496
g594
(g598
S'\xb6\x00\x00\x00'
p1497
tp1498
Rp1499
ag594
(g598
S'r\x00\x00\x00'
p1500
tp1501
Rp1502
aa(lp1503
g594
(g598
S'\xcb\x00\x00\x00'
p1504
tp1505
Rp1506
ag594
(g598
S'q\x00\x00\x00'
p1507
tp1508
Rp1509
aa(lp1510
g594
(g598
S'\xe3\x00\x00\x00'
p1511
tp1512
Rp1513
ag594
(g598
S'r\x00\x00\x00'
p1514
tp1515
Rp1516
aa(lp1517
g594
(g598
S'\xfa\x00\x00\x00'
p1518
tp1519
Rp1520
ag594
(g598
S'r\x00\x00\x00'
p1521
tp1522
Rp1523
aa(lp1524
g594
(g598
S'\x0f\x01\x00\x00'
p1525
tp1526
Rp1527
ag594
(g598
S'q\x00\x00\x00'
p1528
tp1529
Rp1530
aa(lp1531
g594
(g598
S'&\x01\x00\x00'
p1532
tp1533
Rp1534
ag594
(g598
S'p\x00\x00\x00'
p1535
tp1536
Rp1537
aa(lp1538
g594
(g598
S'=\x01\x00\x00'
p1539
tp1540
Rp1541
ag594
(g598
S'r\x00\x00\x00'
p1542
tp1543
Rp1544
aa(lp1545
g594
(g598
S'S\x01\x00\x00'
p1546
tp1547
Rp1548
ag594
(g598
S'q\x00\x00\x00'
p1549
tp1550
Rp1551
aa(lp1552
g594
(g598
S'i\x01\x00\x00'
p1553
tp1554
Rp1555
ag594
(g598
S'q\x00\x00\x00'
p1556
tp1557
Rp1558
aa(lp1559
g594
(g598
S'\x81\x01\x00\x00'
p1560
tp1561
Rp1562
ag594
(g598
S'p\x00\x00\x00'
p1563
tp1564
Rp1565
aa(lp1566
g594
(g598
S'\x96\x01\x00\x00'
p1567
tp1568
Rp1569
ag594
(g598
S'q\x00\x00\x00'
p1570
tp1571
Rp1572
aa(lp1573
g594
(g598
S'\xac\x01\x00\x00'
p1574
tp1575
Rp1576
ag594
(g598
S'r\x00\x00\x00'
p1577
tp1578
Rp1579
aa(lp1580
g594
(g598
S'\xc6\x01\x00\x00'
p1581
tp1582
Rp1583
ag594
(g598
S'q\x00\x00\x00'
p1584
tp1585
Rp1586
aa(lp1587
g594
(g598
S'\xda\x01\x00\x00'
p1588
tp1589
Rp1590
ag594
(g598
S's\x00\x00\x00'
p1591
tp1592
Rp1593
aa(lp1594
g594
(g598
S'\xf0\x01\x00\x00'
p1595
tp1596
Rp1597
ag594
(g598
S'q\x00\x00\x00'
p1598
tp1599
Rp1600
aa(lp1601
g594
(g598
S'\x07\x02\x00\x00'
p1602
tp1603
Rp1604
ag594
(g598
S'q\x00\x00\x00'
p1605
tp1606
Rp1607
aa(lp1608
g594
(g598
S'\x01\x00\x00\x00'
p1609
tp1610
Rp1611
ag594
(g598
S'\x88\x00\x00\x00'
p1612
tp1613
Rp1614
aa(lp1615
g594
(g598
S'\x17\x00\x00\x00'
p1616
tp1617
Rp1618
ag594
(g598
S'\x88\x00\x00\x00'
p1619
tp1620
Rp1621
aa(lp1622
g594
(g598
S'.\x00\x00\x00'
p1623
tp1624
Rp1625
ag594
(g598
S'\x89\x00\x00\x00'
p1626
tp1627
Rp1628
aa(lp1629
g594
(g598
S'B\x00\x00\x00'
p1630
tp1631
Rp1632
ag594
(g598
S'\x88\x00\x00\x00'
p1633
tp1634
Rp1635
aa(lp1636
g594
(g598
S'[\x00\x00\x00'
p1637
tp1638
Rp1639
ag594
(g598
S'\x87\x00\x00\x00'
p1640
tp1641
Rp1642
aa(lp1643
g594
(g598
S'o\x00\x00\x00'
p1644
tp1645
Rp1646
ag594
(g598
S'\x87\x00\x00\x00'
p1647
tp1648
Rp1649
aa(lp1650
g594
(g598
S'\x89\x00\x00\x00'
p1651
tp1652
Rp1653
ag594
(g598
S'\x85\x00\x00\x00'
p1654
tp1655
Rp1656
aa(lp1657
g594
(g598
S'\x9f\x00\x00\x00'
p1658
tp1659
Rp1660
ag594
(g598
S'\x89\x00\x00\x00'
p1661
tp1662
Rp1663
aa(lp1664
g594
(g598
S'\xb4\x00\x00\x00'
p1665
tp1666
Rp1667
ag594
(g598
S'\x89\x00\x00\x00'
p1668
tp1669
Rp1670
aa(lp1671
g594
(g598
S'\xc9\x00\x00\x00'
p1672
tp1673
Rp1674
ag594
(g598
S'\x88\x00\x00\x00'
p1675
tp1676
Rp1677
aa(lp1678
g594
(g598
S'\xe2\x00\x00\x00'
p1679
tp1680
Rp1681
ag594
(g598
S'\x88\x00\x00\x00'
p1682
tp1683
Rp1684
aa(lp1685
g594
(g598
S'\xf8\x00\x00\x00'
p1686
tp1687
Rp1688
ag594
(g598
S'\x88\x00\x00\x00'
p1689
tp1690
Rp1691
aa(lp1692
g594
(g598
S'\x10\x01\x00\x00'
p1693
tp1694
Rp1695
ag594
(g598
S'\x88\x00\x00\x00'
p1696
tp1697
Rp1698
aa(lp1699
g594
(g598
S"'\x01\x00\x00"
p1700
tp1701
Rp1702
ag594
(g598
S'\x86\x00\x00\x00'
p1703
tp1704
Rp1705
aa(lp1706
g594
(g598
S':\x01\x00\x00'
p1707
tp1708
Rp1709
ag594
(g598
S'\x88\x00\x00\x00'
p1710
tp1711
Rp1712
aa(lp1713
g594
(g598
S'S\x01\x00\x00'
p1714
tp1715
Rp1716
ag594
(g598
S'\x88\x00\x00\x00'
p1717
tp1718
Rp1719
aa(lp1720
g594
(g598
S'i\x01\x00\x00'
p1721
tp1722
Rp1723
ag594
(g598
S'\x88\x00\x00\x00'
p1724
tp1725
Rp1726
aa(lp1727
g594
(g598
S'\x81\x01\x00\x00'
p1728
tp1729
Rp1730
ag594
(g598
S'\x88\x00\x00\x00'
p1731
tp1732
Rp1733
aa(lp1734
g594
(g598
S'\x99\x01\x00\x00'
p1735
tp1736
Rp1737
ag594
(g598
S'\x89\x00\x00\x00'
p1738
tp1739
Rp1740
aa(lp1741
g594
(g598
S'\xae\x01\x00\x00'
p1742
tp1743
Rp1744
ag594
(g598
S'\x88\x00\x00\x00'
p1745
tp1746
Rp1747
aa(lp1748
g594
(g598
S'\xc4\x01\x00\x00'
p1749
tp1750
Rp1751
ag594
(g598
S'\x88\x00\x00\x00'
p1752
tp1753
Rp1754
aa(lp1755
g594
(g598
S'\xdc\x01\x00\x00'
p1756
tp1757
Rp1758
ag594
(g598
S'\x88\x00\x00\x00'
p1759
tp1760
Rp1761
aa(lp1762
g594
(g598
S'\xf1\x01\x00\x00'
p1763
tp1764
Rp1765
ag594
(g598
S'\x87\x00\x00\x00'
p1766
tp1767
Rp1768
aa(lp1769
g594
(g598
S'\x05\x02\x00\x00'
p1770
tp1771
Rp1772
ag594
(g598
S'\x88\x00\x00\x00'
p1773
tp1774
Rp1775
aa(lp1776
g594
(g598
S'\x01\x00\x00\x00'
p1777
tp1778
Rp1779
ag594
(g598
S'\x9f\x00\x00\x00'
p1780
tp1781
Rp1782
aa(lp1783
g594
(g598
S'\x17\x00\x00\x00'
p1784
tp1785
Rp1786
ag594
(g598
S'\x9e\x00\x00\x00'
p1787
tp1788
Rp1789
aa(lp1790
g594
(g598
S'/\x00\x00\x00'
p1791
tp1792
Rp1793
ag594
(g598
S'\x9c\x00\x00\x00'
p1794
tp1795
Rp1796
aa(lp1797
g594
(g598
S'F\x00\x00\x00'
p1798
tp1799
Rp1800
ag594
(g598
S'\x9f\x00\x00\x00'
p1801
tp1802
Rp1803
aa(lp1804
g594
(g598
S'Y\x00\x00\x00'
p1805
tp1806
Rp1807
ag594
(g598
S'\x9e\x00\x00\x00'
p1808
tp1809
Rp1810
aa(lp1811
g594
(g598
S'r\x00\x00\x00'
p1812
tp1813
Rp1814
ag594
(g598
S'\xa0\x00\x00\x00'
p1815
tp1816
Rp1817
aa(lp1818
g594
(g598
S'\x89\x00\x00\x00'
p1819
tp1820
Rp1821
ag594
(g598
S'\x9d\x00\x00\x00'
p1822
tp1823
Rp1824
aa(lp1825
g594
(g598
S'\x9f\x00\x00\x00'
p1826
tp1827
Rp1828
ag594
(g598
S'\x9e\x00\x00\x00'
p1829
tp1830
Rp1831
aa(lp1832
g594
(g598
S'\xb7\x00\x00\x00'
p1833
tp1834
Rp1835
ag594
(g598
S'\xa0\x00\x00\x00'
p1836
tp1837
Rp1838
aa(lp1839
g594
(g598
S'\xca\x00\x00\x00'
p1840
tp1841
Rp1842
ag594
(g598
S'\x9f\x00\x00\x00'
p1843
tp1844
Rp1845
aa(lp1846
g594
(g598
S'\xe3\x00\x00\x00'
p1847
tp1848
Rp1849
ag594
(g598
S'\x9e\x00\x00\x00'
p1850
tp1851
Rp1852
aa(lp1853
g594
(g598
S'\xf8\x00\x00\x00'
p1854
tp1855
Rp1856
ag594
(g598
S'\x9f\x00\x00\x00'
p1857
tp1858
Rp1859
aa(lp1860
g594
(g598
S'\x10\x01\x00\x00'
p1861
tp1862
Rp1863
ag594
(g598
S'\x9f\x00\x00\x00'
p1864
tp1865
Rp1866
aa(lp1867
g594
(g598
S'&\x01\x00\x00'
p1868
tp1869
Rp1870
ag594
(g598
S'\x9f\x00\x00\x00'
p1871
tp1872
Rp1873
aa(lp1874
g594
(g598
S'<\x01\x00\x00'
p1875
tp1876
Rp1877
ag594
(g598
S'\x9f\x00\x00\x00'
p1878
tp1879
Rp1880
aa(lp1881
g594
(g598
S'T\x01\x00\x00'
p1882
tp1883
Rp1884
ag594
(g598
S'\x9e\x00\x00\x00'
p1885
tp1886
Rp1887
aa(lp1888
g594
(g598
S'l\x01\x00\x00'
p1889
tp1890
Rp1891
ag594
(g598
S'\x9f\x00\x00\x00'
p1892
tp1893
Rp1894
aa(lp1895
g594
(g598
S'\x80\x01\x00\x00'
p1896
tp1897
Rp1898
ag594
(g598
S'\x9e\x00\x00\x00'
p1899
tp1900
Rp1901
aa(lp1902
g594
(g598
S'\x96\x01\x00\x00'
p1903
tp1904
Rp1905
ag594
(g598
S'\x9e\x00\x00\x00'
p1906
tp1907
Rp1908
aa(lp1909
g594
(g598
S'\xad\x01\x00\x00'
p1910
tp1911
Rp1912
ag594
(g598
S'\x9d\x00\x00\x00'
p1913
tp1914
Rp1915
aa(lp1916
g594
(g598
S'\xc5\x01\x00\x00'
p1917
tp1918
Rp1919
ag594
(g598
S'\xa0\x00\x00\x00'
p1920
tp1921
Rp1922
aa(lp1923
g594
(g598
S'\xdb\x01\x00\x00'
p1924
tp1925
Rp1926
ag594
(g598
S'\xa1\x00\x00\x00'
p1927
tp1928
Rp1929
aa(lp1930
g594
(g598
S'\xf1\x01\x00\x00'
p1931
tp1932
Rp1933
ag594
(g598
S'\x9d\x00\x00\x00'
p1934
tp1935
Rp1936
aa(lp1937
g594
(g598
S'\x07\x02\x00\x00'
p1938
tp1939
Rp1940
ag594
(g598
S'\xa0\x00\x00\x00'
p1941
tp1942
Rp1943
aa(lp1944
g594
(g598
S'\x01\x00\x00\x00'
p1945
tp1946
Rp1947
ag594
(g598
S'\xb3\x00\x00\x00'
p1948
tp1949
Rp1950
aa(lp1951
g594
(g598
S'\x17\x00\x00\x00'
p1952
tp1953
Rp1954
ag594
(g598
S'\xb6\x00\x00\x00'
p1955
tp1956
Rp1957
aa(lp1958
g594
(g598
S'/\x00\x00\x00'
p1959
tp1960
Rp1961
ag594
(g598
S'\xb4\x00\x00\x00'
p1962
tp1963
Rp1964
aa(lp1965
g594
(g598
S'C\x00\x00\x00'
p1966
tp1967
Rp1968
ag594
(g598
S'\xb6\x00\x00\x00'
p1969
tp1970
Rp1971
aa(lp1972
g594
(g598
S'[\x00\x00\x00'
p1973
tp1974
Rp1975
ag594
(g598
S'\xb5\x00\x00\x00'
p1976
tp1977
Rp1978
aa(lp1979
g594
(g598
S'r\x00\x00\x00'
p1980
tp1981
Rp1982
ag594
(g598
S'\xb5\x00\x00\x00'
p1983
tp1984
Rp1985
aa(lp1986
g594
(g598
S'\x88\x00\x00\x00'
p1987
tp1988
Rp1989
ag594
(g598
S'\xb4\x00\x00\x00'
p1990
tp1991
Rp1992
aa(lp1993
g594
(g598
S'\x9d\x00\x00\x00'
p1994
tp1995
Rp1996
ag594
(g598
S'\xb5\x00\x00\x00'
p1997
tp1998
Rp1999
aa(lp2000
g594
(g598
S'\xb5\x00\x00\x00'
p2001
tp2002
Rp2003
ag594
(g598
S'\xb5\x00\x00\x00'
p2004
tp2005
Rp2006
aa(lp2007
g594
(g598
S'\xcc\x00\x00\x00'
p2008
tp2009
Rp2010
ag594
(g598
S'\xb6\x00\x00\x00'
p2011
tp2012
Rp2013
aa(lp2014
g594
(g598
S'\xe5\x00\x00\x00'
p2015
tp2016
Rp2017
ag594
(g598
S'\xb3\x00\x00\x00'
p2018
tp2019
Rp2020
aa(lp2021
g594
(g598
S'\xf8\x00\x00\x00'
p2022
tp2023
Rp2024
ag594
(g598
S'\xb5\x00\x00\x00'
p2025
tp2026
Rp2027
aa(lp2028
g594
(g598
S'\x0e\x01\x00\x00'
p2029
tp2030
Rp2031
ag594
(g598
S'\xb4\x00\x00\x00'
p2032
tp2033
Rp2034
aa(lp2035
g594
(g598
S"'\x01\x00\x00"
p2036
tp2037
Rp2038
ag594
(g598
S'\xb4\x00\x00\x00'
p2039
tp2040
Rp2041
aa(lp2042
g594
(g598
S'>\x01\x00\x00'
p2043
tp2044
Rp2045
ag594
(g598
S'\xb5\x00\x00\x00'
p2046
tp2047
Rp2048
aa(lp2049
g594
(g598
S'U\x01\x00\x00'
p2050
tp2051
Rp2052
ag594
(g598
S'\xb7\x00\x00\x00'
p2053
tp2054
Rp2055
aa(lp2056
g594
(g598
S'i\x01\x00\x00'
p2057
tp2058
Rp2059
ag594
(g598
S'\xb4\x00\x00\x00'
p2060
tp2061
Rp2062
aa(lp2063
g594
(g598
S'\x81\x01\x00\x00'
p2064
tp2065
Rp2066
ag594
(g598
S'\xb4\x00\x00\x00'
p2067
tp2068
Rp2069
aa(lp2070
g594
(g598
S'\x97\x01\x00\x00'
p2071
tp2072
Rp2073
ag594
(g598
S'\xb4\x00\x00\x00'
p2074
tp2075
Rp2076
aa(lp2077
g594
(g598
S'\xad\x01\x00\x00'
p2078
tp2079
Rp2080
ag594
(g598
S'\xb4\x00\x00\x00'
p2081
tp2082
Rp2083
aa(lp2084
g594
(g598
S'\xc5\x01\x00\x00'
p2085
tp2086
Rp2087
ag594
(g598
S'\xb4\x00\x00\x00'
p2088
tp2089
Rp2090
aa(lp2091
g594
(g598
S'\xdc\x01\x00\x00'
p2092
tp2093
Rp2094
ag594
(g598
S'\xb4\x00\x00\x00'
p2095
tp2096
Rp2097
aa(lp2098
g594
(g598
S'\xf1\x01\x00\x00'
p2099
tp2100
Rp2101
ag594
(g598
S'\xb6\x00\x00\x00'
p2102
tp2103
Rp2104
aa(lp2105
g594
(g598
S'\x08\x02\x00\x00'
p2106
tp2107
Rp2108
ag594
(g598
S'\xb3\x00\x00\x00'
p2109
tp2110
Rp2111
aa(lp2112
g594
(g598
S'\x01\x00\x00\x00'
p2113
tp2114
Rp2115
ag594
(g598
S'\xcb\x00\x00\x00'
p2116
tp2117
Rp2118
aa(lp2119
g594
(g598
S'\x18\x00\x00\x00'
p2120
tp2121
Rp2122
ag594
(g598
S'\xcb\x00\x00\x00'
p2123
tp2124
Rp2125
aa(lp2126
g594
(g598
S'.\x00\x00\x00'
p2127
tp2128
Rp2129
ag594
(g598
S'\xca\x00\x00\x00'
p2130
tp2131
Rp2132
aa(lp2133
g594
(g598
S'D\x00\x00\x00'
p2134
tp2135
Rp2136
ag594
(g598
S'\xcb\x00\x00\x00'
p2137
tp2138
Rp2139
aa(lp2140
g594
(g598
S'[\x00\x00\x00'
p2141
tp2142
Rp2143
ag594
(g598
S'\xcc\x00\x00\x00'
p2144
tp2145
Rp2146
aa(lp2147
g594
(g598
S's\x00\x00\x00'
p2148
tp2149
Rp2150
ag594
(g598
S'\xce\x00\x00\x00'
p2151
tp2152
Rp2153
aa(lp2154
g594
(g598
S'\x88\x00\x00\x00'
p2155
tp2156
Rp2157
ag594
(g598
S'\xcd\x00\x00\x00'
p2158
tp2159
Rp2160
aa(lp2161
g594
(g598
S'\x9f\x00\x00\x00'
p2162
tp2163
Rp2164
ag594
(g598
S'\xcc\x00\x00\x00'
p2165
tp2166
Rp2167
aa(lp2168
g594
(g598
S'\xb6\x00\x00\x00'
p2169
tp2170
Rp2171
ag594
(g598
S'\xcb\x00\x00\x00'
p2172
tp2173
Rp2174
aa(lp2175
g594
(g598
S'\xcb\x00\x00\x00'
p2176
tp2177
Rp2178
ag594
(g598
S'\xcb\x00\x00\x00'
p2179
tp2180
Rp2181
aa(lp2182
g594
(g598
S'\xe3\x00\x00\x00'
p2183
tp2184
Rp2185
ag594
(g598
S'\xc9\x00\x00\x00'
p2186
tp2187
Rp2188
aa(lp2189
g594
(g598
S'\xf9\x00\x00\x00'
p2190
tp2191
Rp2192
ag594
(g598
S'\xcc\x00\x00\x00'
p2193
tp2194
Rp2195
aa(lp2196
g594
(g598
S'\x0e\x01\x00\x00'
p2197
tp2198
Rp2199
ag594
(g598
S'\xcb\x00\x00\x00'
p2200
tp2201
Rp2202
aa(lp2203
g594
(g598
S'&\x01\x00\x00'
p2204
tp2205
Rp2206
ag594
(g598
S'\xcc\x00\x00\x00'
p2207
tp2208
Rp2209
aa(lp2210
g594
(g598
S';\x01\x00\x00'
p2211
tp2212
Rp2213
ag594
(g598
S'\xca\x00\x00\x00'
p2214
tp2215
Rp2216
aa(lp2217
g594
(g598
S'S\x01\x00\x00'
p2218
tp2219
Rp2220
ag594
(g598
S'\xcb\x00\x00\x00'
p2221
tp2222
Rp2223
aa(lp2224
g594
(g598
S'g\x01\x00\x00'
p2225
tp2226
Rp2227
ag594
(g598
S'\xcb\x00\x00\x00'
p2228
tp2229
Rp2230
aa(lp2231
g594
(g598
S'\x80\x01\x00\x00'
p2232
tp2233
Rp2234
ag594
(g598
S'\xcb\x00\x00\x00'
p2235
tp2236
Rp2237
aa(lp2238
g594
(g598
S'\x95\x01\x00\x00'
p2239
tp2240
Rp2241
ag594
(g598
S'\xcb\x00\x00\x00'
p2242
tp2243
Rp2244
aa(lp2245
g594
(g598
S'\xad\x01\x00\x00'
p2246
tp2247
Rp2248
ag594
(g598
S'\xcc\x00\x00\x00'
p2249
tp2250
Rp2251
aa(lp2252
g594
(g598
S'\xc4\x01\x00\x00'
p2253
tp2254
Rp2255
ag594
(g598
S'\xcc\x00\x00\x00'
p2256
tp2257
Rp2258
aa(lp2259
g594
(g598
S'\xda\x01\x00\x00'
p2260
tp2261
Rp2262
ag594
(g598
S'\xcc\x00\x00\x00'
p2263
tp2264
Rp2265
aa(lp2266
g594
(g598
S'\xf2\x01\x00\x00'
p2267
tp2268
Rp2269
ag594
(g598
S'\xcb\x00\x00\x00'
p2270
tp2271
Rp2272
aa(lp2273
g594
(g598
S'\x08\x02\x00\x00'
p2274
tp2275
Rp2276
ag594
(g598
S'\xcc\x00\x00\x00'
p2277
tp2278
Rp2279
aa(lp2280
g594
(g598
S'\x01\x00\x00\x00'
p2281
tp2282
Rp2283
ag594
(g598
S'\xe0\x00\x00\x00'
p2284
tp2285
Rp2286
aa(lp2287
g594
(g598
S'\x17\x00\x00\x00'
p2288
tp2289
Rp2290
ag594
(g598
S'\xe3\x00\x00\x00'
p2291
tp2292
Rp2293
aa(lp2294
g594
(g598
S'-\x00\x00\x00'
p2295
tp2296
Rp2297
ag594
(g598
S'\xe2\x00\x00\x00'
p2298
tp2299
Rp2300
aa(lp2301
g594
(g598
S'D\x00\x00\x00'
p2302
tp2303
Rp2304
ag594
(g598
S'\xe2\x00\x00\x00'
p2305
tp2306
Rp2307
aa(lp2308
g594
(g598
S'[\x00\x00\x00'
p2309
tp2310
Rp2311
ag594
(g598
S'\xe2\x00\x00\x00'
p2312
tp2313
Rp2314
aa(lp2315
g594
(g598
S'q\x00\x00\x00'
p2316
tp2317
Rp2318
ag594
(g598
S'\xe3\x00\x00\x00'
p2319
tp2320
Rp2321
aa(lp2322
g594
(g598
S'\x87\x00\x00\x00'
p2323
tp2324
Rp2325
ag594
(g598
S'\xe1\x00\x00\x00'
p2326
tp2327
Rp2328
aa(lp2329
g594
(g598
S'\x9d\x00\x00\x00'
p2330
tp2331
Rp2332
ag594
(g598
S'\xe2\x00\x00\x00'
p2333
tp2334
Rp2335
aa(lp2336
g594
(g598
S'\xb5\x00\x00\x00'
p2337
tp2338
Rp2339
ag594
(g598
S'\xe2\x00\x00\x00'
p2340
tp2341
Rp2342
aa(lp2343
g594
(g598
S'\xcc\x00\x00\x00'
p2344
tp2345
Rp2346
ag594
(g598
S'\xe2\x00\x00\x00'
p2347
tp2348
Rp2349
aa(lp2350
g594
(g598
S'\xe2\x00\x00\x00'
p2351
tp2352
Rp2353
ag594
(g598
S'\xe4\x00\x00\x00'
p2354
tp2355
Rp2356
aa(lp2357
g594
(g598
S'\xf8\x00\x00\x00'
p2358
tp2359
Rp2360
ag594
(g598
S'\xe2\x00\x00\x00'
p2361
tp2362
Rp2363
aa(lp2364
g594
(g598
S'\x0f\x01\x00\x00'
p2365
tp2366
Rp2367
ag594
(g598
S'\xe0\x00\x00\x00'
p2368
tp2369
Rp2370
aa(lp2371
g594
(g598
S'&\x01\x00\x00'
p2372
tp2373
Rp2374
ag594
(g598
S'\xe2\x00\x00\x00'
p2375
tp2376
Rp2377
aa(lp2378
g594
(g598
S'<\x01\x00\x00'
p2379
tp2380
Rp2381
ag594
(g598
S'\xe2\x00\x00\x00'
p2382
tp2383
Rp2384
aa(lp2385
g594
(g598
S'T\x01\x00\x00'
p2386
tp2387
Rp2388
ag594
(g598
S'\xe3\x00\x00\x00'
p2389
tp2390
Rp2391
aa(lp2392
g594
(g598
S'i\x01\x00\x00'
p2393
tp2394
Rp2395
ag594
(g598
S'\xe2\x00\x00\x00'
p2396
tp2397
Rp2398
aa(lp2399
g594
(g598
S'\x7f\x01\x00\x00'
p2400
tp2401
Rp2402
ag594
(g598
S'\xe3\x00\x00\x00'
p2403
tp2404
Rp2405
aa(lp2406
g594
(g598
S'\x99\x01\x00\x00'
p2407
tp2408
Rp2409
ag594
(g598
S'\xe3\x00\x00\x00'
p2410
tp2411
Rp2412
aa(lp2413
g594
(g598
S'\xaf\x01\x00\x00'
p2414
tp2415
Rp2416
ag594
(g598
S'\xe2\x00\x00\x00'
p2417
tp2418
Rp2419
aa(lp2420
g594
(g598
S'\xc3\x01\x00\x00'
p2421
tp2422
Rp2423
ag594
(g598
S'\xe1\x00\x00\x00'
p2424
tp2425
Rp2426
aa(lp2427
g594
(g598
S'\xdb\x01\x00\x00'
p2428
tp2429
Rp2430
ag594
(g598
S'\xe3\x00\x00\x00'
p2431
tp2432
Rp2433
aa(lp2434
g594
(g598
S'\xf2\x01\x00\x00'
p2435
tp2436
Rp2437
ag594
(g598
S'\xe2\x00\x00\x00'
p2438
tp2439
Rp2440
aa(lp2441
g594
(g598
S'\x06\x02\x00\x00'
p2442
tp2443
Rp2444
ag594
(g598
S'\xe2\x00\x00\x00'
p2445
tp2446
Rp2447
aa(lp2448
g594
(g598
S'\x01\x00\x00\x00'
p2449
tp2450
Rp2451
ag594
(g598
S'\xf9\x00\x00\x00'
p2452
tp2453
Rp2454
aa(lp2455
g594
(g598
S'\x18\x00\x00\x00'
p2456
tp2457
Rp2458
ag594
(g598
S'\xfb\x00\x00\x00'
p2459
tp2460
Rp2461
aa(lp2462
g594
(g598
S'/\x00\x00\x00'
p2463
tp2464
Rp2465
ag594
(g598
S'\xf9\x00\x00\x00'
p2466
tp2467
Rp2468
aa(lp2469
g594
(g598
S'E\x00\x00\x00'
p2470
tp2471
Rp2472
ag594
(g598
S'\xfa\x00\x00\x00'
p2473
tp2474
Rp2475
aa(lp2476
g594
(g598
S'[\x00\x00\x00'
p2477
tp2478
Rp2479
ag594
(g598
S'\xf8\x00\x00\x00'
p2480
tp2481
Rp2482
aa(lp2483
g594
(g598
S'q\x00\x00\x00'
p2484
tp2485
Rp2486
ag594
(g598
S'\xf9\x00\x00\x00'
p2487
tp2488
Rp2489
aa(lp2490
g594
(g598
S'\x87\x00\x00\x00'
p2491
tp2492
Rp2493
ag594
(g598
S'\xf8\x00\x00\x00'
p2494
tp2495
Rp2496
aa(lp2497
g594
(g598
S'\xa0\x00\x00\x00'
p2498
tp2499
Rp2500
ag594
(g598
S'\xf6\x00\x00\x00'
p2501
tp2502
Rp2503
aa(lp2504
g594
(g598
S'\xb6\x00\x00\x00'
p2505
tp2506
Rp2507
ag594
(g598
S'\xf8\x00\x00\x00'
p2508
tp2509
Rp2510
aa(lp2511
g594
(g598
S'\xcd\x00\x00\x00'
p2512
tp2513
Rp2514
ag594
(g598
S'\xfa\x00\x00\x00'
p2515
tp2516
Rp2517
aa(lp2518
g594
(g598
S'\xe2\x00\x00\x00'
p2519
tp2520
Rp2521
ag594
(g598
S'\xf8\x00\x00\x00'
p2522
tp2523
Rp2524
aa(lp2525
g594
(g598
S'\xf9\x00\x00\x00'
p2526
tp2527
Rp2528
ag594
(g598
S'\xf9\x00\x00\x00'
p2529
tp2530
Rp2531
aa(lp2532
g594
(g598
S'\x0f\x01\x00\x00'
p2533
tp2534
Rp2535
ag594
(g598
S'\xf8\x00\x00\x00'
p2536
tp2537
Rp2538
aa(lp2539
g594
(g598
S'&\x01\x00\x00'
p2540
tp2541
Rp2542
ag594
(g598
S'\xfa\x00\x00\x00'
p2543
tp2544
Rp2545
aa(lp2546
g594
(g598
S'=\x01\x00\x00'
p2547
tp2548
Rp2549
ag594
(g598
S'\xf6\x00\x00\x00'
p2550
tp2551
Rp2552
aa(lp2553
g594
(g598
S'S\x01\x00\x00'
p2554
tp2555
Rp2556
ag594
(g598
S'\xfa\x00\x00\x00'
p2557
tp2558
Rp2559
aa(lp2560
g594
(g598
S'i\x01\x00\x00'
p2561
tp2562
Rp2563
ag594
(g598
S'\xf8\x00\x00\x00'
p2564
tp2565
Rp2566
aa(lp2567
g594
(g598
S'\x7f\x01\x00\x00'
p2568
tp2569
Rp2570
ag594
(g598
S'\xf7\x00\x00\x00'
p2571
tp2572
Rp2573
aa(lp2574
g594
(g598
S'\x96\x01\x00\x00'
p2575
tp2576
Rp2577
ag594
(g598
S'\xfa\x00\x00\x00'
p2578
tp2579
Rp2580
aa(lp2581
g594
(g598
S'\xac\x01\x00\x00'
p2582
tp2583
Rp2584
ag594
(g598
S'\xf8\x00\x00\x00'
p2585
tp2586
Rp2587
aa(lp2588
g594
(g598
S'\xc3\x01\x00\x00'
p2589
tp2590
Rp2591
ag594
(g598
S'\xf8\x00\x00\x00'
p2592
tp2593
Rp2594
aa(lp2595
g594
(g598
S'\xd9\x01\x00\x00'
p2596
tp2597
Rp2598
ag594
(g598
S'\xf8\x00\x00\x00'
p2599
tp2600
Rp2601
aa(lp2602
g594
(g598
S'\xf2\x01\x00\x00'
p2603
tp2604
Rp2605
ag594
(g598
S'\xf8\x00\x00\x00'
p2606
tp2607
Rp2608
aa(lp2609
g594
(g598
S'\x06\x02\x00\x00'
p2610
tp2611
Rp2612
ag594
(g598
S'\xfa\x00\x00\x00'
p2613
tp2614
Rp2615
aa(lp2616
g594
(g598
S'\x01\x00\x00\x00'
p2617
tp2618
Rp2619
ag594
(g598
S'\x0f\x01\x00\x00'
p2620
tp2621
Rp2622
aa(lp2623
g594
(g598
S'\x15\x00\x00\x00'
p2624
tp2625
Rp2626
ag594
(g598
S'\x0f\x01\x00\x00'
p2627
tp2628
Rp2629
aa(lp2630
g594
(g598
S'-\x00\x00\x00'
p2631
tp2632
Rp2633
ag594
(g598
S'\x0f\x01\x00\x00'
p2634
tp2635
Rp2636
aa(lp2637
g594
(g598
S'F\x00\x00\x00'
p2638
tp2639
Rp2640
ag594
(g598
S'\x0f\x01\x00\x00'
p2641
tp2642
Rp2643
aa(lp2644
g594
(g598
S'Z\x00\x00\x00'
p2645
tp2646
Rp2647
ag594
(g598
S'\x0e\x01\x00\x00'
p2648
tp2649
Rp2650
aa(lp2651
g594
(g598
S'p\x00\x00\x00'
p2652
tp2653
Rp2654
ag594
(g598
S'\x0f\x01\x00\x00'
p2655
tp2656
Rp2657
aa(lp2658
g594
(g598
S'\x88\x00\x00\x00'
p2659
tp2660
Rp2661
ag594
(g598
S'\x0f\x01\x00\x00'
p2662
tp2663
Rp2664
aa(lp2665
g594
(g598
S'\x9e\x00\x00\x00'
p2666
tp2667
Rp2668
ag594
(g598
S'\x0f\x01\x00\x00'
p2669
tp2670
Rp2671
aa(lp2672
g594
(g598
S'\xb3\x00\x00\x00'
p2673
tp2674
Rp2675
ag594
(g598
S'\x0e\x01\x00\x00'
p2676
tp2677
Rp2678
aa(lp2679
g594
(g598
S'\xcb\x00\x00\x00'
p2680
tp2681
Rp2682
ag594
(g598
S'\x0e\x01\x00\x00'
p2683
tp2684
Rp2685
aa(lp2686
g594
(g598
S'\xe2\x00\x00\x00'
p2687
tp2688
Rp2689
ag594
(g598
S'\x0f\x01\x00\x00'
p2690
tp2691
Rp2692
aa(lp2693
g594
(g598
S'\xf8\x00\x00\x00'
p2694
tp2695
Rp2696
ag594
(g598
S'\x10\x01\x00\x00'
p2697
tp2698
Rp2699
aa(lp2700
g594
(g598
S'\x10\x01\x00\x00'
p2701
tp2702
Rp2703
ag594
(g598
S'\x11\x01\x00\x00'
p2704
tp2705
Rp2706
aa(lp2707
g594
(g598
S'&\x01\x00\x00'
p2708
tp2709
Rp2710
ag594
(g598
S'\x0e\x01\x00\x00'
p2711
tp2712
Rp2713
aa(lp2714
g594
(g598
S'>\x01\x00\x00'
p2715
tp2716
Rp2717
ag594
(g598
S'\x0e\x01\x00\x00'
p2718
tp2719
Rp2720
aa(lp2721
g594
(g598
S'S\x01\x00\x00'
p2722
tp2723
Rp2724
ag594
(g598
S'\x0f\x01\x00\x00'
p2725
tp2726
Rp2727
aa(lp2728
g594
(g598
S'i\x01\x00\x00'
p2729
tp2730
Rp2731
ag594
(g598
S'\x0e\x01\x00\x00'
p2732
tp2733
Rp2734
aa(lp2735
g594
(g598
S'\x81\x01\x00\x00'
p2736
tp2737
Rp2738
ag594
(g598
S'\x11\x01\x00\x00'
p2739
tp2740
Rp2741
aa(lp2742
g594
(g598
S'\x96\x01\x00\x00'
p2743
tp2744
Rp2745
ag594
(g598
S'\x0e\x01\x00\x00'
p2746
tp2747
Rp2748
aa(lp2749
g594
(g598
S'\xac\x01\x00\x00'
p2750
tp2751
Rp2752
ag594
(g598
S'\x0f\x01\x00\x00'
p2753
tp2754
Rp2755
aa(lp2756
g594
(g598
S'\xc6\x01\x00\x00'
p2757
tp2758
Rp2759
ag594
(g598
S'\x0e\x01\x00\x00'
p2760
tp2761
Rp2762
aa(lp2763
g594
(g598
S'\xd9\x01\x00\x00'
p2764
tp2765
Rp2766
ag594
(g598
S'\x0f\x01\x00\x00'
p2767
tp2768
Rp2769
aa(lp2770
g594
(g598
S'\xf1\x01\x00\x00'
p2771
tp2772
Rp2773
ag594
(g598
S'\x10\x01\x00\x00'
p2774
tp2775
Rp2776
aa(lp2777
g594
(g598
S'\x08\x02\x00\x00'
p2778
tp2779
Rp2780
ag594
(g598
S'\x10\x01\x00\x00'
p2781
tp2782
Rp2783
aa(lp2784
g594
(g598
S'\x01\x00\x00\x00'
p2785
tp2786
Rp2787
ag594
(g598
S"'\x01\x00\x00"
p2788
tp2789
Rp2790
aa(lp2791
g594
(g598
S'\x16\x00\x00\x00'
p2792
tp2793
Rp2794
ag594
(g598
S'%\x01\x00\x00'
p2795
tp2796
Rp2797
aa(lp2798
g594
(g598
S'.\x00\x00\x00'
p2799
tp2800
Rp2801
ag594
(g598
S'&\x01\x00\x00'
p2802
tp2803
Rp2804
aa(lp2805
g594
(g598
S'E\x00\x00\x00'
p2806
tp2807
Rp2808
ag594
(g598
S'&\x01\x00\x00'
p2809
tp2810
Rp2811
aa(lp2812
g594
(g598
S'\\\x00\x00\x00'
p2813
tp2814
Rp2815
ag594
(g598
S'&\x01\x00\x00'
p2816
tp2817
Rp2818
aa(lp2819
g594
(g598
S'q\x00\x00\x00'
p2820
tp2821
Rp2822
ag594
(g598
S'%\x01\x00\x00'
p2823
tp2824
Rp2825
aa(lp2826
g594
(g598
S'\x87\x00\x00\x00'
p2827
tp2828
Rp2829
ag594
(g598
S')\x01\x00\x00'
p2830
tp2831
Rp2832
aa(lp2833
g594
(g598
S'\xa0\x00\x00\x00'
p2834
tp2835
Rp2836
ag594
(g598
S"'\x01\x00\x00"
p2837
tp2838
Rp2839
aa(lp2840
g594
(g598
S'\xb5\x00\x00\x00'
p2841
tp2842
Rp2843
ag594
(g598
S'%\x01\x00\x00'
p2844
tp2845
Rp2846
aa(lp2847
g594
(g598
S'\xca\x00\x00\x00'
p2848
tp2849
Rp2850
ag594
(g598
S'%\x01\x00\x00'
p2851
tp2852
Rp2853
aa(lp2854
g594
(g598
S'\xe0\x00\x00\x00'
p2855
tp2856
Rp2857
ag594
(g598
S'&\x01\x00\x00'
p2858
tp2859
Rp2860
aa(lp2861
g594
(g598
S'\xf7\x00\x00\x00'
p2862
tp2863
Rp2864
ag594
(g598
S'&\x01\x00\x00'
p2865
tp2866
Rp2867
aa(lp2868
g594
(g598
S'\x0e\x01\x00\x00'
p2869
tp2870
Rp2871
ag594
(g598
S'(\x01\x00\x00'
p2872
tp2873
Rp2874
aa(lp2875
g594
(g598
S'&\x01\x00\x00'
p2876
tp2877
Rp2878
ag594
(g598
S'%\x01\x00\x00'
p2879
tp2880
Rp2881
aa(lp2882
g594
(g598
S'=\x01\x00\x00'
p2883
tp2884
Rp2885
ag594
(g598
S'&\x01\x00\x00'
p2886
tp2887
Rp2888
aa(lp2889
g594
(g598
S'S\x01\x00\x00'
p2890
tp2891
Rp2892
ag594
(g598
S'&\x01\x00\x00'
p2893
tp2894
Rp2895
aa(lp2896
g594
(g598
S'j\x01\x00\x00'
p2897
tp2898
Rp2899
ag594
(g598
S'%\x01\x00\x00'
p2900
tp2901
Rp2902
aa(lp2903
g594
(g598
S'\x80\x01\x00\x00'
p2904
tp2905
Rp2906
ag594
(g598
S'$\x01\x00\x00'
p2907
tp2908
Rp2909
aa(lp2910
g594
(g598
S'\x98\x01\x00\x00'
p2911
tp2912
Rp2913
ag594
(g598
S'&\x01\x00\x00'
p2914
tp2915
Rp2916
aa(lp2917
g594
(g598
S'\xad\x01\x00\x00'
p2918
tp2919
Rp2920
ag594
(g598
S"'\x01\x00\x00"
p2921
tp2922
Rp2923
aa(lp2924
g594
(g598
S'\xc3\x01\x00\x00'
p2925
tp2926
Rp2927
ag594
(g598
S'%\x01\x00\x00'
p2928
tp2929
Rp2930
aa(lp2931
g594
(g598
S'\xdc\x01\x00\x00'
p2932
tp2933
Rp2934
ag594
(g598
S'$\x01\x00\x00'
p2935
tp2936
Rp2937
aa(lp2938
g594
(g598
S'\xf0\x01\x00\x00'
p2939
tp2940
Rp2941
ag594
(g598
S'&\x01\x00\x00'
p2942
tp2943
Rp2944
aa(lp2945
g594
(g598
S'\x08\x02\x00\x00'
p2946
tp2947
Rp2948
ag594
(g598
S'&\x01\x00\x00'
p2949
tp2950
Rp2951
aa(lp2952
g594
(g598
S'\x01\x00\x00\x00'
p2953
tp2954
Rp2955
ag594
(g598
S'<\x01\x00\x00'
p2956
tp2957
Rp2958
aa(lp2959
g594
(g598
S'\x17\x00\x00\x00'
p2960
tp2961
Rp2962
ag594
(g598
S'=\x01\x00\x00'
p2963
tp2964
Rp2965
aa(lp2966
g594
(g598
S'.\x00\x00\x00'
p2967
tp2968
Rp2969
ag594
(g598
S';\x01\x00\x00'
p2970
tp2971
Rp2972
aa(lp2973
g594
(g598
S'F\x00\x00\x00'
p2974
tp2975
Rp2976
ag594
(g598
S';\x01\x00\x00'
p2977
tp2978
Rp2979
aa(lp2980
g594
(g598
S'[\x00\x00\x00'
p2981
tp2982
Rp2983
ag594
(g598
S'<\x01\x00\x00'
p2984
tp2985
Rp2986
aa(lp2987
g594
(g598
S'o\x00\x00\x00'
p2988
tp2989
Rp2990
ag594
(g598
S'=\x01\x00\x00'
p2991
tp2992
Rp2993
aa(lp2994
g594
(g598
S'\x88\x00\x00\x00'
p2995
tp2996
Rp2997
ag594
(g598
S'<\x01\x00\x00'
p2998
tp2999
Rp3000
aa(lp3001
g594
(g598
S'\x9e\x00\x00\x00'
p3002
tp3003
Rp3004
ag594
(g598
S'<\x01\x00\x00'
p3005
tp3006
Rp3007
aa(lp3008
g594
(g598
S'\xb6\x00\x00\x00'
p3009
tp3010
Rp3011
ag594
(g598
S';\x01\x00\x00'
p3012
tp3013
Rp3014
aa(lp3015
g594
(g598
S'\xcb\x00\x00\x00'
p3016
tp3017
Rp3018
ag594
(g598
S'=\x01\x00\x00'
p3019
tp3020
Rp3021
aa(lp3022
g594
(g598
S'\xe3\x00\x00\x00'
p3023
tp3024
Rp3025
ag594
(g598
S'<\x01\x00\x00'
p3026
tp3027
Rp3028
aa(lp3029
g594
(g598
S'\xfa\x00\x00\x00'
p3030
tp3031
Rp3032
ag594
(g598
S'=\x01\x00\x00'
p3033
tp3034
Rp3035
aa(lp3036
g594
(g598
S'\x10\x01\x00\x00'
p3037
tp3038
Rp3039
ag594
(g598
S';\x01\x00\x00'
p3040
tp3041
Rp3042
aa(lp3043
g594
(g598
S'&\x01\x00\x00'
p3044
tp3045
Rp3046
ag594
(g598
S';\x01\x00\x00'
p3047
tp3048
Rp3049
aa(lp3050
g594
(g598
S'>\x01\x00\x00'
p3051
tp3052
Rp3053
ag594
(g598
S':\x01\x00\x00'
p3054
tp3055
Rp3056
aa(lp3057
g594
(g598
S'R\x01\x00\x00'
p3058
tp3059
Rp3060
ag594
(g598
S'>\x01\x00\x00'
p3061
tp3062
Rp3063
aa(lp3064
g594
(g598
S'h\x01\x00\x00'
p3065
tp3066
Rp3067
ag594
(g598
S'<\x01\x00\x00'
p3068
tp3069
Rp3070
aa(lp3071
g594
(g598
S'\x81\x01\x00\x00'
p3072
tp3073
Rp3074
ag594
(g598
S'<\x01\x00\x00'
p3075
tp3076
Rp3077
aa(lp3078
g594
(g598
S'\x96\x01\x00\x00'
p3079
tp3080
Rp3081
ag594
(g598
S'=\x01\x00\x00'
p3082
tp3083
Rp3084
aa(lp3085
g594
(g598
S'\xae\x01\x00\x00'
p3086
tp3087
Rp3088
ag594
(g598
S'=\x01\x00\x00'
p3089
tp3090
Rp3091
aa(lp3092
g594
(g598
S'\xc4\x01\x00\x00'
p3093
tp3094
Rp3095
ag594
(g598
S'=\x01\x00\x00'
p3096
tp3097
Rp3098
aa(lp3099
g594
(g598
S'\xd9\x01\x00\x00'
p3100
tp3101
Rp3102
ag594
(g598
S';\x01\x00\x00'
p3103
tp3104
Rp3105
aa(lp3106
g594
(g598
S'\xf1\x01\x00\x00'
p3107
tp3108
Rp3109
ag594
(g598
S'>\x01\x00\x00'
p3110
tp3111
Rp3112
aa(lp3113
g594
(g598
S'\x07\x02\x00\x00'
p3114
tp3115
Rp3116
ag594
(g598
S';\x01\x00\x00'
p3117
tp3118
Rp3119
aa(lp3120
g594
(g598
S'\x01\x00\x00\x00'
p3121
tp3122
Rp3123
ag594
(g598
S'S\x01\x00\x00'
p3124
tp3125
Rp3126
aa(lp3127
g594
(g598
S'\x18\x00\x00\x00'
p3128
tp3129
Rp3130
ag594
(g598
S'T\x01\x00\x00'
p3131
tp3132
Rp3133
aa(lp3134
g594
(g598
S'.\x00\x00\x00'
p3135
tp3136
Rp3137
ag594
(g598
S'R\x01\x00\x00'
p3138
tp3139
Rp3140
aa(lp3141
g594
(g598
S'D\x00\x00\x00'
p3142
tp3143
Rp3144
ag594
(g598
S'S\x01\x00\x00'
p3145
tp3146
Rp3147
aa(lp3148
g594
(g598
S'Z\x00\x00\x00'
p3149
tp3150
Rp3151
ag594
(g598
S'R\x01\x00\x00'
p3152
tp3153
Rp3154
aa(lp3155
g594
(g598
S's\x00\x00\x00'
p3156
tp3157
Rp3158
ag594
(g598
S'S\x01\x00\x00'
p3159
tp3160
Rp3161
aa(lp3162
g594
(g598
S'\x87\x00\x00\x00'
p3163
tp3164
Rp3165
ag594
(g598
S'Q\x01\x00\x00'
p3166
tp3167
Rp3168
aa(lp3169
g594
(g598
S'\x9d\x00\x00\x00'
p3170
tp3171
Rp3172
ag594
(g598
S'S\x01\x00\x00'
p3173
tp3174
Rp3175
aa(lp3176
g594
(g598
S'\xb6\x00\x00\x00'
p3177
tp3178
Rp3179
ag594
(g598
S'S\x01\x00\x00'
p3180
tp3181
Rp3182
aa(lp3183
g594
(g598
S'\xcd\x00\x00\x00'
p3184
tp3185
Rp3186
ag594
(g598
S'S\x01\x00\x00'
p3187
tp3188
Rp3189
aa(lp3190
g594
(g598
S'\xe2\x00\x00\x00'
p3191
tp3192
Rp3193
ag594
(g598
S'U\x01\x00\x00'
p3194
tp3195
Rp3196
aa(lp3197
g594
(g598
S'\xf8\x00\x00\x00'
p3198
tp3199
Rp3200
ag594
(g598
S'R\x01\x00\x00'
p3201
tp3202
Rp3203
aa(lp3204
g594
(g598
S'\x10\x01\x00\x00'
p3205
tp3206
Rp3207
ag594
(g598
S'T\x01\x00\x00'
p3208
tp3209
Rp3210
aa(lp3211
g594
(g598
S"'\x01\x00\x00"
p3212
tp3213
Rp3214
ag594
(g598
S'T\x01\x00\x00'
p3215
tp3216
Rp3217
aa(lp3218
g594
(g598
S'<\x01\x00\x00'
p3219
tp3220
Rp3221
ag594
(g598
S'S\x01\x00\x00'
p3222
tp3223
Rp3224
aa(lp3225
g594
(g598
S'S\x01\x00\x00'
p3226
tp3227
Rp3228
ag594
(g598
S'R\x01\x00\x00'
p3229
tp3230
Rp3231
aa(lp3232
g594
(g598
S'i\x01\x00\x00'
p3233
tp3234
Rp3235
ag594
(g598
S'U\x01\x00\x00'
p3236
tp3237
Rp3238
aa(lp3239
g594
(g598
S'\x7f\x01\x00\x00'
p3240
tp3241
Rp3242
ag594
(g598
S'S\x01\x00\x00'
p3243
tp3244
Rp3245
aa(lp3246
g594
(g598
S'\x97\x01\x00\x00'
p3247
tp3248
Rp3249
ag594
(g598
S'S\x01\x00\x00'
p3250
tp3251
Rp3252
aa(lp3253
g594
(g598
S'\xaf\x01\x00\x00'
p3254
tp3255
Rp3256
ag594
(g598
S'T\x01\x00\x00'
p3257
tp3258
Rp3259
aa(lp3260
g594
(g598
S'\xc3\x01\x00\x00'
p3261
tp3262
Rp3263
ag594
(g598
S'S\x01\x00\x00'
p3264
tp3265
Rp3266
aa(lp3267
g594
(g598
S'\xdb\x01\x00\x00'
p3268
tp3269
Rp3270
ag594
(g598
S'S\x01\x00\x00'
p3271
tp3272
Rp3273
aa(lp3274
g594
(g598
S'\xf1\x01\x00\x00'
p3275
tp3276
Rp3277
ag594
(g598
S'Q\x01\x00\x00'
p3278
tp3279
Rp3280
aa(lp3281
g594
(g598
S'\x07\x02\x00\x00'
p3282
tp3283
Rp3284
ag594
(g598
S'T\x01\x00\x00'
p3285
tp3286
Rp3287
aa(lp3288
g594
(g598
S'\x01\x00\x00\x00'
p3289
tp3290
Rp3291
ag594
(g598
S'i\x01\x00\x00'
p3292
tp3293
Rp3294
aa(lp3295
g594
(g598
S'\x17\x00\x00\x00'
p3296
tp3297
Rp3298
ag594
(g598
S'j\x01\x00\x00'
p3299
tp3300
Rp3301
aa(lp3302
g594
(g598
S'-\x00\x00\x00'
p3303
tp3304
Rp3305
ag594
(g598
S'i\x01\x00\x00'
p3306
tp3307
Rp3308
aa(lp3309
g594
(g598
S'B\x00\x00\x00'
p3310
tp3311
Rp3312
ag594
(g598
S'i\x01\x00\x00'
p3313
tp3314
Rp3315
aa(lp3316
g594
(g598
S'[\x00\x00\x00'
p3317
tp3318
Rp3319
ag594
(g598
S'i\x01\x00\x00'
p3320
tp3321
Rp3322
aa(lp3323
g594
(g598
S'q\x00\x00\x00'
p3324
tp3325
Rp3326
ag594
(g598
S'i\x01\x00\x00'
p3327
tp3328
Rp3329
aa(lp3330
g594
(g598
S'\x88\x00\x00\x00'
p3331
tp3332
Rp3333
ag594
(g598
S'i\x01\x00\x00'
p3334
tp3335
Rp3336
aa(lp3337
g594
(g598
S'\x9c\x00\x00\x00'
p3338
tp3339
Rp3340
ag594
(g598
S'j\x01\x00\x00'
p3341
tp3342
Rp3343
aa(lp3344
g594
(g598
S'\xb6\x00\x00\x00'
p3345
tp3346
Rp3347
ag594
(g598
S'j\x01\x00\x00'
p3348
tp3349
Rp3350
aa(lp3351
g594
(g598
S'\xcc\x00\x00\x00'
p3352
tp3353
Rp3354
ag594
(g598
S'k\x01\x00\x00'
p3355
tp3356
Rp3357
aa(lp3358
g594
(g598
S'\xe2\x00\x00\x00'
p3359
tp3360
Rp3361
ag594
(g598
S'k\x01\x00\x00'
p3362
tp3363
Rp3364
aa(lp3365
g594
(g598
S'\xfa\x00\x00\x00'
p3366
tp3367
Rp3368
ag594
(g598
S'k\x01\x00\x00'
p3369
tp3370
Rp3371
aa(lp3372
g594
(g598
S'\x10\x01\x00\x00'
p3373
tp3374
Rp3375
ag594
(g598
S'h\x01\x00\x00'
p3376
tp3377
Rp3378
aa(lp3379
g594
(g598
S'&\x01\x00\x00'
p3380
tp3381
Rp3382
ag594
(g598
S'k\x01\x00\x00'
p3383
tp3384
Rp3385
aa(lp3386
g594
(g598
S';\x01\x00\x00'
p3387
tp3388
Rp3389
ag594
(g598
S'i\x01\x00\x00'
p3390
tp3391
Rp3392
aa(lp3393
g594
(g598
S'Q\x01\x00\x00'
p3394
tp3395
Rp3396
ag594
(g598
S'j\x01\x00\x00'
p3397
tp3398
Rp3399
aa(lp3400
g594
(g598
S'i\x01\x00\x00'
p3401
tp3402
Rp3403
ag594
(g598
S'j\x01\x00\x00'
p3404
tp3405
Rp3406
aa(lp3407
g594
(g598
S'\x7f\x01\x00\x00'
p3408
tp3409
Rp3410
ag594
(g598
S'j\x01\x00\x00'
p3411
tp3412
Rp3413
aa(lp3414
g594
(g598
S'\x95\x01\x00\x00'
p3415
tp3416
Rp3417
ag594
(g598
S'k\x01\x00\x00'
p3418
tp3419
Rp3420
aa(lp3421
g594
(g598
S'\xad\x01\x00\x00'
p3422
tp3423
Rp3424
ag594
(g598
S'h\x01\x00\x00'
p3425
tp3426
Rp3427
aa(lp3428
g594
(g598
S'\xc4\x01\x00\x00'
p3429
tp3430
Rp3431
ag594
(g598
S'j\x01\x00\x00'
p3432
tp3433
Rp3434
aa(lp3435
g594
(g598
S'\xda\x01\x00\x00'
p3436
tp3437
Rp3438
ag594
(g598
S'h\x01\x00\x00'
p3439
tp3440
Rp3441
aa(lp3442
g594
(g598
S'\xf2\x01\x00\x00'
p3443
tp3444
Rp3445
ag594
(g598
S'i\x01\x00\x00'
p3446
tp3447
Rp3448
aa(lp3449
g594
(g598
S'\x08\x02\x00\x00'
p3450
tp3451
Rp3452
ag594
(g598
S'h\x01\x00\x00'
p3453
tp3454
Rp3455
aa(lp3456
g594
(g598
S'\x01\x00\x00\x00'
p3457
tp3458
Rp3459
ag594
(g598
S'\x7f\x01\x00\x00'
p3460
tp3461
Rp3462
aa(lp3463
g594
(g598
S'\x18\x00\x00\x00'
p3464
tp3465
Rp3466
ag594
(g598
S'\x7f\x01\x00\x00'
p3467
tp3468
Rp3469
aa(lp3470
g594
(g598
S'0\x00\x00\x00'
p3471
tp3472
Rp3473
ag594
(g598
S'\x80\x01\x00\x00'
p3474
tp3475
Rp3476
aa(lp3477
g594
(g598
S'E\x00\x00\x00'
p3478
tp3479
Rp3480
ag594
(g598
S'\x80\x01\x00\x00'
p3481
tp3482
Rp3483
aa(lp3484
g594
(g598
S'\\\x00\x00\x00'
p3485
tp3486
Rp3487
ag594
(g598
S'\x81\x01\x00\x00'
p3488
tp3489
Rp3490
aa(lp3491
g594
(g598
S'q\x00\x00\x00'
p3492
tp3493
Rp3494
ag594
(g598
S'\x80\x01\x00\x00'
p3495
tp3496
Rp3497
aa(lp3498
g594
(g598
S'\x88\x00\x00\x00'
p3499
tp3500
Rp3501
ag594
(g598
S'\x7f\x01\x00\x00'
p3502
tp3503
Rp3504
aa(lp3505
g594
(g598
S'\x9d\x00\x00\x00'
p3506
tp3507
Rp3508
ag594
(g598
S'\x80\x01\x00\x00'
p3509
tp3510
Rp3511
aa(lp3512
g594
(g598
S'\xb5\x00\x00\x00'
p3513
tp3514
Rp3515
ag594
(g598
S'\x81\x01\x00\x00'
p3516
tp3517
Rp3518
aa(lp3519
g594
(g598
S'\xcc\x00\x00\x00'
p3520
tp3521
Rp3522
ag594
(g598
S'\x81\x01\x00\x00'
p3523
tp3524
Rp3525
aa(lp3526
g594
(g598
S'\xe3\x00\x00\x00'
p3527
tp3528
Rp3529
ag594
(g598
S'\x81\x01\x00\x00'
p3530
tp3531
Rp3532
aa(lp3533
g594
(g598
S'\xfa\x00\x00\x00'
p3534
tp3535
Rp3536
ag594
(g598
S'\x81\x01\x00\x00'
p3537
tp3538
Rp3539
aa(lp3540
g594
(g598
S'\x10\x01\x00\x00'
p3541
tp3542
Rp3543
ag594
(g598
S'\x81\x01\x00\x00'
p3544
tp3545
Rp3546
aa(lp3547
g594
(g598
S'&\x01\x00\x00'
p3548
tp3549
Rp3550
ag594
(g598
S'\x80\x01\x00\x00'
p3551
tp3552
Rp3553
aa(lp3554
g594
(g598
S'=\x01\x00\x00'
p3555
tp3556
Rp3557
ag594
(g598
S'\x82\x01\x00\x00'
p3558
tp3559
Rp3560
aa(lp3561
g594
(g598
S'R\x01\x00\x00'
p3562
tp3563
Rp3564
ag594
(g598
S'\x80\x01\x00\x00'
p3565
tp3566
Rp3567
aa(lp3568
g594
(g598
S'i\x01\x00\x00'
p3569
tp3570
Rp3571
ag594
(g598
S'\x80\x01\x00\x00'
p3572
tp3573
Rp3574
aa(lp3575
g594
(g598
S'\x80\x01\x00\x00'
p3576
tp3577
Rp3578
ag594
(g598
S'\x80\x01\x00\x00'
p3579
tp3580
Rp3581
aa(lp3582
g594
(g598
S'\x98\x01\x00\x00'
p3583
tp3584
Rp3585
ag594
(g598
S'\x7f\x01\x00\x00'
p3586
tp3587
Rp3588
aa(lp3589
g594
(g598
S'\xae\x01\x00\x00'
p3590
tp3591
Rp3592
ag594
(g598
S'\x81\x01\x00\x00'
p3593
tp3594
Rp3595
aa(lp3596
g594
(g598
S'\xc5\x01\x00\x00'
p3597
tp3598
Rp3599
ag594
(g598
S'\x80\x01\x00\x00'
p3600
tp3601
Rp3602
aa(lp3603
g594
(g598
S'\xdc\x01\x00\x00'
p3604
tp3605
Rp3606
ag594
(g598
S'\x7f\x01\x00\x00'
p3607
tp3608
Rp3609
aa(lp3610
g594
(g598
S'\xef\x01\x00\x00'
p3611
tp3612
Rp3613
ag594
(g598
S'\x7f\x01\x00\x00'
p3614
tp3615
Rp3616
aa(lp3617
g594
(g598
S'\x08\x02\x00\x00'
p3618
tp3619
Rp3620
ag594
(g598
S'\x80\x01\x00\x00'
p3621
tp3622
Rp3623
aa(lp3624
g594
(g598
S'\x01\x00\x00\x00'
p3625
tp3626
Rp3627
ag594
(g598
S'\x96\x01\x00\x00'
p3628
tp3629
Rp3630
aa(lp3631
g594
(g598
S'\x19\x00\x00\x00'
p3632
tp3633
Rp3634
ag594
(g598
S'\x98\x01\x00\x00'
p3635
tp3636
Rp3637
aa(lp3638
g594
(g598
S'/\x00\x00\x00'
p3639
tp3640
Rp3641
ag594
(g598
S'\x96\x01\x00\x00'
p3642
tp3643
Rp3644
aa(lp3645
g594
(g598
S'D\x00\x00\x00'
p3646
tp3647
Rp3648
ag594
(g598
S'\x96\x01\x00\x00'
p3649
tp3650
Rp3651
aa(lp3652
g594
(g598
S'\\\x00\x00\x00'
p3653
tp3654
Rp3655
ag594
(g598
S'\x97\x01\x00\x00'
p3656
tp3657
Rp3658
aa(lp3659
g594
(g598
S'q\x00\x00\x00'
p3660
tp3661
Rp3662
ag594
(g598
S'\x96\x01\x00\x00'
p3663
tp3664
Rp3665
aa(lp3666
g594
(g598
S'\x88\x00\x00\x00'
p3667
tp3668
Rp3669
ag594
(g598
S'\x95\x01\x00\x00'
p3670
tp3671
Rp3672
aa(lp3673
g594
(g598
S'\x9e\x00\x00\x00'
p3674
tp3675
Rp3676
ag594
(g598
S'\x97\x01\x00\x00'
p3677
tp3678
Rp3679
aa(lp3680
g594
(g598
S'\xb7\x00\x00\x00'
p3681
tp3682
Rp3683
ag594
(g598
S'\x98\x01\x00\x00'
p3684
tp3685
Rp3686
aa(lp3687
g594
(g598
S'\xcc\x00\x00\x00'
p3688
tp3689
Rp3690
ag594
(g598
S'\x96\x01\x00\x00'
p3691
tp3692
Rp3693
aa(lp3694
g594
(g598
S'\xe0\x00\x00\x00'
p3695
tp3696
Rp3697
ag594
(g598
S'\x98\x01\x00\x00'
p3698
tp3699
Rp3700
aa(lp3701
g594
(g598
S'\xf9\x00\x00\x00'
p3702
tp3703
Rp3704
ag594
(g598
S'\x94\x01\x00\x00'
p3705
tp3706
Rp3707
aa(lp3708
g594
(g598
S'\x0f\x01\x00\x00'
p3709
tp3710
Rp3711
ag594
(g598
S'\x96\x01\x00\x00'
p3712
tp3713
Rp3714
aa(lp3715
g594
(g598
S"'\x01\x00\x00"
p3716
tp3717
Rp3718
ag594
(g598
S'\x96\x01\x00\x00'
p3719
tp3720
Rp3721
aa(lp3722
g594
(g598
S'<\x01\x00\x00'
p3723
tp3724
Rp3725
ag594
(g598
S'\x95\x01\x00\x00'
p3726
tp3727
Rp3728
aa(lp3729
g594
(g598
S'T\x01\x00\x00'
p3730
tp3731
Rp3732
ag594
(g598
S'\x97\x01\x00\x00'
p3733
tp3734
Rp3735
aa(lp3736
g594
(g598
S'i\x01\x00\x00'
p3737
tp3738
Rp3739
ag594
(g598
S'\x97\x01\x00\x00'
p3740
tp3741
Rp3742
aa(lp3743
g594
(g598
S'\x83\x01\x00\x00'
p3744
tp3745
Rp3746
ag594
(g598
S'\x97\x01\x00\x00'
p3747
tp3748
Rp3749
aa(lp3750
g594
(g598
S'\x97\x01\x00\x00'
p3751
tp3752
Rp3753
ag594
(g598
S'\x96\x01\x00\x00'
p3754
tp3755
Rp3756
aa(lp3757
g594
(g598
S'\xad\x01\x00\x00'
p3758
tp3759
Rp3760
ag594
(g598
S'\x96\x01\x00\x00'
p3761
tp3762
Rp3763
aa(lp3764
g594
(g598
S'\xc3\x01\x00\x00'
p3765
tp3766
Rp3767
ag594
(g598
S'\x95\x01\x00\x00'
p3768
tp3769
Rp3770
aa(lp3771
g594
(g598
S'\xda\x01\x00\x00'
p3772
tp3773
Rp3774
ag594
(g598
S'\x97\x01\x00\x00'
p3775
tp3776
Rp3777
aa(lp3778
g594
(g598
S'\xf1\x01\x00\x00'
p3779
tp3780
Rp3781
ag594
(g598
S'\x97\x01\x00\x00'
p3782
tp3783
Rp3784
aa(lp3785
g594
(g598
S'\x08\x02\x00\x00'
p3786
tp3787
Rp3788
ag594
(g598
S'\x98\x01\x00\x00'
p3789
tp3790
Rp3791
aa(lp3792
g594
(g598
S'\x01\x00\x00\x00'
p3793
tp3794
Rp3795
ag594
(g598
S'\xae\x01\x00\x00'
p3796
tp3797
Rp3798
aa(lp3799
g594
(g598
S'\x19\x00\x00\x00'
p3800
tp3801
Rp3802
ag594
(g598
S'\xad\x01\x00\x00'
p3803
tp3804
Rp3805
aa(lp3806
g594
(g598
S'.\x00\x00\x00'
p3807
tp3808
Rp3809
ag594
(g598
S'\xad\x01\x00\x00'
p3810
tp3811
Rp3812
aa(lp3813
g594
(g598
S'C\x00\x00\x00'
p3814
tp3815
Rp3816
ag594
(g598
S'\xad\x01\x00\x00'
p3817
tp3818
Rp3819
aa(lp3820
g594
(g598
S'X\x00\x00\x00'
p3821
tp3822
Rp3823
ag594
(g598
S'\xac\x01\x00\x00'
p3824
tp3825
Rp3826
aa(lp3827
g594
(g598
S'p\x00\x00\x00'
p3828
tp3829
Rp3830
ag594
(g598
S'\xae\x01\x00\x00'
p3831
tp3832
Rp3833
aa(lp3834
g594
(g598
S'\x88\x00\x00\x00'
p3835
tp3836
Rp3837
ag594
(g598
S'\xac\x01\x00\x00'
p3838
tp3839
Rp3840
aa(lp3841
g594
(g598
S'\x9e\x00\x00\x00'
p3842
tp3843
Rp3844
ag594
(g598
S'\xac\x01\x00\x00'
p3845
tp3846
Rp3847
aa(lp3848
g594
(g598
S'\xb4\x00\x00\x00'
p3849
tp3850
Rp3851
ag594
(g598
S'\xae\x01\x00\x00'
p3852
tp3853
Rp3854
aa(lp3855
g594
(g598
S'\xcb\x00\x00\x00'
p3856
tp3857
Rp3858
ag594
(g598
S'\xae\x01\x00\x00'
p3859
tp3860
Rp3861
aa(lp3862
g594
(g598
S'\xe2\x00\x00\x00'
p3863
tp3864
Rp3865
ag594
(g598
S'\xac\x01\x00\x00'
p3866
tp3867
Rp3868
aa(lp3869
g594
(g598
S'\xf9\x00\x00\x00'
p3870
tp3871
Rp3872
ag594
(g598
S'\xab\x01\x00\x00'
p3873
tp3874
Rp3875
aa(lp3876
g594
(g598
S'\x0f\x01\x00\x00'
p3877
tp3878
Rp3879
ag594
(g598
S'\xad\x01\x00\x00'
p3880
tp3881
Rp3882
aa(lp3883
g594
(g598
S'%\x01\x00\x00'
p3884
tp3885
Rp3886
ag594
(g598
S'\xae\x01\x00\x00'
p3887
tp3888
Rp3889
aa(lp3890
g594
(g598
S';\x01\x00\x00'
p3891
tp3892
Rp3893
ag594
(g598
S'\xaf\x01\x00\x00'
p3894
tp3895
Rp3896
aa(lp3897
g594
(g598
S'S\x01\x00\x00'
p3898
tp3899
Rp3900
ag594
(g598
S'\xae\x01\x00\x00'
p3901
tp3902
Rp3903
aa(lp3904
g594
(g598
S'i\x01\x00\x00'
p3905
tp3906
Rp3907
ag594
(g598
S'\xac\x01\x00\x00'
p3908
tp3909
Rp3910
aa(lp3911
g594
(g598
S'\x80\x01\x00\x00'
p3912
tp3913
Rp3914
ag594
(g598
S'\xad\x01\x00\x00'
p3915
tp3916
Rp3917
aa(lp3918
g594
(g598
S'\x97\x01\x00\x00'
p3919
tp3920
Rp3921
ag594
(g598
S'\xae\x01\x00\x00'
p3922
tp3923
Rp3924
aa(lp3925
g594
(g598
S'\xae\x01\x00\x00'
p3926
tp3927
Rp3928
ag594
(g598
S'\xae\x01\x00\x00'
p3929
tp3930
Rp3931
aa(lp3932
g594
(g598
S'\xc4\x01\x00\x00'
p3933
tp3934
Rp3935
ag594
(g598
S'\xac\x01\x00\x00'
p3936
tp3937
Rp3938
aa(lp3939
g594
(g598
S'\xda\x01\x00\x00'
p3940
tp3941
Rp3942
ag594
(g598
S'\xad\x01\x00\x00'
p3943
tp3944
Rp3945
aa(lp3946
g594
(g598
S'\xef\x01\x00\x00'
p3947
tp3948
Rp3949
ag594
(g598
S'\xad\x01\x00\x00'
p3950
tp3951
Rp3952
aa(lp3953
g594
(g598
S'\x08\x02\x00\x00'
p3954
tp3955
Rp3956
ag594
(g598
S'\xad\x01\x00\x00'
p3957
tp3958
Rp3959
aa(lp3960
g594
(g598
S'\x01\x00\x00\x00'
p3961
tp3962
Rp3963
ag594
(g598
S'\xc3\x01\x00\x00'
p3964
tp3965
Rp3966
aa(lp3967
g594
(g598
S'\x18\x00\x00\x00'
p3968
tp3969
Rp3970
ag594
(g598
S'\xc3\x01\x00\x00'
p3971
tp3972
Rp3973
aa(lp3974
g594
(g598
S'.\x00\x00\x00'
p3975
tp3976
Rp3977
ag594
(g598
S'\xc4\x01\x00\x00'
p3978
tp3979
Rp3980
aa(lp3981
g594
(g598
S'E\x00\x00\x00'
p3982
tp3983
Rp3984
ag594
(g598
S'\xc3\x01\x00\x00'
p3985
tp3986
Rp3987
aa(lp3988
g594
(g598
S'[\x00\x00\x00'
p3989
tp3990
Rp3991
ag594
(g598
S'\xc4\x01\x00\x00'
p3992
tp3993
Rp3994
aa(lp3995
g594
(g598
S'o\x00\x00\x00'
p3996
tp3997
Rp3998
ag594
(g598
S'\xc4\x01\x00\x00'
p3999
tp4000
Rp4001
aa(lp4002
g594
(g598
S'\x89\x00\x00\x00'
p4003
tp4004
Rp4005
ag594
(g598
S'\xc3\x01\x00\x00'
p4006
tp4007
Rp4008
aa(lp4009
g594
(g598
S'\x9e\x00\x00\x00'
p4010
tp4011
Rp4012
ag594
(g598
S'\xc5\x01\x00\x00'
p4013
tp4014
Rp4015
aa(lp4016
g594
(g598
S'\xb6\x00\x00\x00'
p4017
tp4018
Rp4019
ag594
(g598
S'\xc3\x01\x00\x00'
p4020
tp4021
Rp4022
aa(lp4023
g594
(g598
S'\xce\x00\x00\x00'
p4024
tp4025
Rp4026
ag594
(g598
S'\xc3\x01\x00\x00'
p4027
tp4028
Rp4029
aa(lp4030
g594
(g598
S'\xe2\x00\x00\x00'
p4031
tp4032
Rp4033
ag594
(g598
S'\xc6\x01\x00\x00'
p4034
tp4035
Rp4036
aa(lp4037
g594
(g598
S'\xf7\x00\x00\x00'
p4038
tp4039
Rp4040
ag594
(g598
S'\xc4\x01\x00\x00'
p4041
tp4042
Rp4043
aa(lp4044
g594
(g598
S'\x10\x01\x00\x00'
p4045
tp4046
Rp4047
ag594
(g598
S'\xc4\x01\x00\x00'
p4048
tp4049
Rp4050
aa(lp4051
g594
(g598
S'&\x01\x00\x00'
p4052
tp4053
Rp4054
ag594
(g598
S'\xc4\x01\x00\x00'
p4055
tp4056
Rp4057
aa(lp4058
g594
(g598
S';\x01\x00\x00'
p4059
tp4060
Rp4061
ag594
(g598
S'\xc5\x01\x00\x00'
p4062
tp4063
Rp4064
aa(lp4065
g594
(g598
S'R\x01\x00\x00'
p4066
tp4067
Rp4068
ag594
(g598
S'\xc4\x01\x00\x00'
p4069
tp4070
Rp4071
aa(lp4072
g594
(g598
S'j\x01\x00\x00'
p4073
tp4074
Rp4075
ag594
(g598
S'\xc4\x01\x00\x00'
p4076
tp4077
Rp4078
aa(lp4079
g594
(g598
S'\x80\x01\x00\x00'
p4080
tp4081
Rp4082
ag594
(g598
S'\xc4\x01\x00\x00'
p4083
tp4084
Rp4085
aa(lp4086
g594
(g598
S'\x98\x01\x00\x00'
p4087
tp4088
Rp4089
ag594
(g598
S'\xc4\x01\x00\x00'
p4090
tp4091
Rp4092
aa(lp4093
g594
(g598
S'\xac\x01\x00\x00'
p4094
tp4095
Rp4096
ag594
(g598
S'\xc4\x01\x00\x00'
p4097
tp4098
Rp4099
aa(lp4100
g594
(g598
S'\xc4\x01\x00\x00'
p4101
tp4102
Rp4103
ag594
(g598
S'\xc4\x01\x00\x00'
p4104
tp4105
Rp4106
aa(lp4107
g594
(g598
S'\xdb\x01\x00\x00'
p4108
tp4109
Rp4110
ag594
(g598
S'\xc5\x01\x00\x00'
p4111
tp4112
Rp4113
aa(lp4114
g594
(g598
S'\xf0\x01\x00\x00'
p4115
tp4116
Rp4117
ag594
(g598
S'\xc2\x01\x00\x00'
p4118
tp4119
Rp4120
aa(lp4121
g594
(g598
S'\x07\x02\x00\x00'
p4122
tp4123
Rp4124
ag594
(g598
S'\xc4\x01\x00\x00'
p4125
tp4126
Rp4127
aa(lp4128
g594
(g598
S'\x03\x00\x00\x00'
p4129
tp4130
Rp4131
ag594
(g598
S'\xd9\x01\x00\x00'
p4132
tp4133
Rp4134
aa(lp4135
g594
(g598
S'\x17\x00\x00\x00'
p4136
tp4137
Rp4138
ag594
(g598
S'\xdb\x01\x00\x00'
p4139
tp4140
Rp4141
aa(lp4142
g594
(g598
S'-\x00\x00\x00'
p4143
tp4144
Rp4145
ag594
(g598
S'\xd9\x01\x00\x00'
p4146
tp4147
Rp4148
aa(lp4149
g594
(g598
S'D\x00\x00\x00'
p4150
tp4151
Rp4152
ag594
(g598
S'\xdb\x01\x00\x00'
p4153
tp4154
Rp4155
aa(lp4156
g594
(g598
S'Z\x00\x00\x00'
p4157
tp4158
Rp4159
ag594
(g598
S'\xd9\x01\x00\x00'
p4160
tp4161
Rp4162
aa(lp4163
g594
(g598
S'q\x00\x00\x00'
p4164
tp4165
Rp4166
ag594
(g598
S'\xd9\x01\x00\x00'
p4167
tp4168
Rp4169
aa(lp4170
g594
(g598
S'\x89\x00\x00\x00'
p4171
tp4172
Rp4173
ag594
(g598
S'\xdb\x01\x00\x00'
p4174
tp4175
Rp4176
aa(lp4177
g594
(g598
S'\x9e\x00\x00\x00'
p4178
tp4179
Rp4180
ag594
(g598
S'\xdb\x01\x00\x00'
p4181
tp4182
Rp4183
aa(lp4184
g594
(g598
S'\xb6\x00\x00\x00'
p4185
tp4186
Rp4187
ag594
(g598
S'\xda\x01\x00\x00'
p4188
tp4189
Rp4190
aa(lp4191
g594
(g598
S'\xcc\x00\x00\x00'
p4192
tp4193
Rp4194
ag594
(g598
S'\xdc\x01\x00\x00'
p4195
tp4196
Rp4197
aa(lp4198
g594
(g598
S'\xe2\x00\x00\x00'
p4199
tp4200
Rp4201
ag594
(g598
S'\xdb\x01\x00\x00'
p4202
tp4203
Rp4204
aa(lp4205
g594
(g598
S'\xf8\x00\x00\x00'
p4206
tp4207
Rp4208
ag594
(g598
S'\xdb\x01\x00\x00'
p4209
tp4210
Rp4211
aa(lp4212
g594
(g598
S'\x0f\x01\x00\x00'
p4213
tp4214
Rp4215
ag594
(g598
S'\xdb\x01\x00\x00'
p4216
tp4217
Rp4218
aa(lp4219
g594
(g598
S'&\x01\x00\x00'
p4220
tp4221
Rp4222
ag594
(g598
S'\xda\x01\x00\x00'
p4223
tp4224
Rp4225
aa(lp4226
g594
(g598
S';\x01\x00\x00'
p4227
tp4228
Rp4229
ag594
(g598
S'\xda\x01\x00\x00'
p4230
tp4231
Rp4232
aa(lp4233
g594
(g598
S'S\x01\x00\x00'
p4234
tp4235
Rp4236
ag594
(g598
S'\xdb\x01\x00\x00'
p4237
tp4238
Rp4239
aa(lp4240
g594
(g598
S'k\x01\x00\x00'
p4241
tp4242
Rp4243
ag594
(g598
S'\xdc\x01\x00\x00'
p4244
tp4245
Rp4246
aa(lp4247
g594
(g598
S'\x81\x01\x00\x00'
p4248
tp4249
Rp4250
ag594
(g598
S'\xda\x01\x00\x00'
p4251
tp4252
Rp4253
aa(lp4254
g594
(g598
S'\x96\x01\x00\x00'
p4255
tp4256
Rp4257
ag594
(g598
S'\xda\x01\x00\x00'
p4258
tp4259
Rp4260
aa(lp4261
g594
(g598
S'\xaf\x01\x00\x00'
p4262
tp4263
Rp4264
ag594
(g598
S'\xd9\x01\x00\x00'
p4265
tp4266
Rp4267
aa(lp4268
g594
(g598
S'\xc5\x01\x00\x00'
p4269
tp4270
Rp4271
ag594
(g598
S'\xdb\x01\x00\x00'
p4272
tp4273
Rp4274
aa(lp4275
g594
(g598
S'\xda\x01\x00\x00'
p4276
tp4277
Rp4278
ag594
(g598
S'\xdb\x01\x00\x00'
p4279
tp4280
Rp4281
aa(lp4282
g594
(g598
S'\xf0\x01\x00\x00'
p4283
tp4284
Rp4285
ag594
(g598
S'\xda\x01\x00\x00'
p4286
tp4287
Rp4288
aa(lp4289
g594
(g598
S'\x07\x02\x00\x00'
p4290
tp4291
Rp4292
ag594
(g598
S'\xda\x01\x00\x00'
p4293
tp4294
Rp4295
aa(lp4296
g594
(g598
S'\x01\x00\x00\x00'
p4297
tp4298
Rp4299
ag594
(g598
S'\xf2\x01\x00\x00'
p4300
tp4301
Rp4302
aa(lp4303
g594
(g598
S'\x17\x00\x00\x00'
p4304
tp4305
Rp4306
ag594
(g598
S'\xf2\x01\x00\x00'
p4307
tp4308
Rp4309
aa(lp4310
g594
(g598
S'.\x00\x00\x00'
p4311
tp4312
Rp4313
ag594
(g598
S'\xf1\x01\x00\x00'
p4314
tp4315
Rp4316
aa(lp4317
g594
(g598
S'E\x00\x00\x00'
p4318
tp4319
Rp4320
ag594
(g598
S'\xf0\x01\x00\x00'
p4321
tp4322
Rp4323
aa(lp4324
g594
(g598
S']\x00\x00\x00'
p4325
tp4326
Rp4327
ag594
(g598
S'\xf2\x01\x00\x00'
p4328
tp4329
Rp4330
aa(lp4331
g594
(g598
S'r\x00\x00\x00'
p4332
tp4333
Rp4334
ag594
(g598
S'\xf2\x01\x00\x00'
p4335
tp4336
Rp4337
aa(lp4338
g594
(g598
S'\x88\x00\x00\x00'
p4339
tp4340
Rp4341
ag594
(g598
S'\xf2\x01\x00\x00'
p4342
tp4343
Rp4344
aa(lp4345
g594
(g598
S'\x9c\x00\x00\x00'
p4346
tp4347
Rp4348
ag594
(g598
S'\xf1\x01\x00\x00'
p4349
tp4350
Rp4351
aa(lp4352
g594
(g598
S'\xb4\x00\x00\x00'
p4353
tp4354
Rp4355
ag594
(g598
S'\xf2\x01\x00\x00'
p4356
tp4357
Rp4358
aa(lp4359
g594
(g598
S'\xcb\x00\x00\x00'
p4360
tp4361
Rp4362
ag594
(g598
S'\xf0\x01\x00\x00'
p4363
tp4364
Rp4365
aa(lp4366
g594
(g598
S'\xe4\x00\x00\x00'
p4367
tp4368
Rp4369
ag594
(g598
S'\xf2\x01\x00\x00'
p4370
tp4371
Rp4372
aa(lp4373
g594
(g598
S'\xf8\x00\x00\x00'
p4374
tp4375
Rp4376
ag594
(g598
S'\xf0\x01\x00\x00'
p4377
tp4378
Rp4379
aa(lp4380
g594
(g598
S'\x0f\x01\x00\x00'
p4381
tp4382
Rp4383
ag594
(g598
S'\xf1\x01\x00\x00'
p4384
tp4385
Rp4386
aa(lp4387
g594
(g598
S'&\x01\x00\x00'
p4388
tp4389
Rp4390
ag594
(g598
S'\xf1\x01\x00\x00'
p4391
tp4392
Rp4393
aa(lp4394
g594
(g598
S'=\x01\x00\x00'
p4395
tp4396
Rp4397
ag594
(g598
S'\xf1\x01\x00\x00'
p4398
tp4399
Rp4400
aa(lp4401
g594
(g598
S'S\x01\x00\x00'
p4402
tp4403
Rp4404
ag594
(g598
S'\xf0\x01\x00\x00'
p4405
tp4406
Rp4407
aa(lp4408
g594
(g598
S'k\x01\x00\x00'
p4409
tp4410
Rp4411
ag594
(g598
S'\xf2\x01\x00\x00'
p4412
tp4413
Rp4414
aa(lp4415
g594
(g598
S'\x81\x01\x00\x00'
p4416
tp4417
Rp4418
ag594
(g598
S'\xf0\x01\x00\x00'
p4419
tp4420
Rp4421
aa(lp4422
g594
(g598
S'\x96\x01\x00\x00'
p4423
tp4424
Rp4425
ag594
(g598
S'\xf1\x01\x00\x00'
p4426
tp4427
Rp4428
aa(lp4429
g594
(g598
S'\xac\x01\x00\x00'
p4430
tp4431
Rp4432
ag594
(g598
S'\xf3\x01\x00\x00'
p4433
tp4434
Rp4435
aa(lp4436
g594
(g598
S'\xc3\x01\x00\x00'
p4437
tp4438
Rp4439
ag594
(g598
S'\xf2\x01\x00\x00'
p4440
tp4441
Rp4442
aa(lp4443
g594
(g598
S'\xd9\x01\x00\x00'
p4444
tp4445
Rp4446
ag594
(g598
S'\xf1\x01\x00\x00'
p4447
tp4448
Rp4449
aa(lp4450
g594
(g598
S'\xef\x01\x00\x00'
p4451
tp4452
Rp4453
ag594
(g598
S'\xf1\x01\x00\x00'
p4454
tp4455
Rp4456
aa(lp4457
g594
(g598
S'\x08\x02\x00\x00'
p4458
tp4459
Rp4460
ag594
(g598
S'\xf0\x01\x00\x00'
p4461
tp4462
Rp4463
aa(lp4464
g594
(g598
S'\x01\x00\x00\x00'
p4465
tp4466
Rp4467
ag594
(g598
S'\x07\x02\x00\x00'
p4468
tp4469
Rp4470
aa(lp4471
g594
(g598
S'\x17\x00\x00\x00'
p4472
tp4473
Rp4474
ag594
(g598
S'\x08\x02\x00\x00'
p4475
tp4476
Rp4477
aa(lp4478
g594
(g598
S'-\x00\x00\x00'
p4479
tp4480
Rp4481
ag594
(g598
S'\x08\x02\x00\x00'
p4482
tp4483
Rp4484
aa(lp4485
g594
(g598
S'E\x00\x00\x00'
p4486
tp4487
Rp4488
ag594
(g598
S'\x08\x02\x00\x00'
p4489
tp4490
Rp4491
aa(lp4492
g594
(g598
S'[\x00\x00\x00'
p4493
tp4494
Rp4495
ag594
(g598
S'\x07\x02\x00\x00'
p4496
tp4497
Rp4498
aa(lp4499
g594
(g598
S'q\x00\x00\x00'
p4500
tp4501
Rp4502
ag594
(g598
S'\x08\x02\x00\x00'
p4503
tp4504
Rp4505
aa(lp4506
g594
(g598
S'\x88\x00\x00\x00'
p4507
tp4508
Rp4509
ag594
(g598
S'\x08\x02\x00\x00'
p4510
tp4511
Rp4512
aa(lp4513
g594
(g598
S'\x9e\x00\x00\x00'
p4514
tp4515
Rp4516
ag594
(g598
S'\x08\x02\x00\x00'
p4517
tp4518
Rp4519
aa(lp4520
g594
(g598
S'\xb6\x00\x00\x00'
p4521
tp4522
Rp4523
ag594
(g598
S'\x08\x02\x00\x00'
p4524
tp4525
Rp4526
aa(lp4527
g594
(g598
S'\xcc\x00\x00\x00'
p4528
tp4529
Rp4530
ag594
(g598
S'\x08\x02\x00\x00'
p4531
tp4532
Rp4533
aa(lp4534
g594
(g598
S'\xe2\x00\x00\x00'
p4535
tp4536
Rp4537
ag594
(g598
S'\x07\x02\x00\x00'
p4538
tp4539
Rp4540
aa(lp4541
g594
(g598
S'\xfa\x00\x00\x00'
p4542
tp4543
Rp4544
ag594
(g598
S'\x08\x02\x00\x00'
p4545
tp4546
Rp4547
aa(lp4548
g594
(g598
S'\x0e\x01\x00\x00'
p4549
tp4550
Rp4551
ag594
(g598
S'\x08\x02\x00\x00'
p4552
tp4553
Rp4554
aa(lp4555
g594
(g598
S"'\x01\x00\x00"
p4556
tp4557
Rp4558
ag594
(g598
S'\x07\x02\x00\x00'
p4559
tp4560
Rp4561
aa(lp4562
g594
(g598
S'>\x01\x00\x00'
p4563
tp4564
Rp4565
ag594
(g598
S'\x08\x02\x00\x00'
p4566
tp4567
Rp4568
aa(lp4569
g594
(g598
S'T\x01\x00\x00'
p4570
tp4571
Rp4572
ag594
(g598
S'\x08\x02\x00\x00'
p4573
tp4574
Rp4575
aa(lp4576
g594
(g598
S'j\x01\x00\x00'
p4577
tp4578
Rp4579
ag594
(g598
S'\x07\x02\x00\x00'
p4580
tp4581
Rp4582
aa(lp4583
g594
(g598
S'\x7f\x01\x00\x00'
p4584
tp4585
Rp4586
ag594
(g598
S'\x08\x02\x00\x00'
p4587
tp4588
Rp4589
aa(lp4590
g594
(g598
S'\x97\x01\x00\x00'
p4591
tp4592
Rp4593
ag594
(g598
S'\x07\x02\x00\x00'
p4594
tp4595
Rp4596
aa(lp4597
g594
(g598
S'\xad\x01\x00\x00'
p4598
tp4599
Rp4600
ag594
(g598
S'\x08\x02\x00\x00'
p4601
tp4602
Rp4603
aa(lp4604
g594
(g598
S'\xc4\x01\x00\x00'
p4605
tp4606
Rp4607
ag594
(g598
S'\x08\x02\x00\x00'
p4608
tp4609
Rp4610
aa(lp4611
g594
(g598
S'\xda\x01\x00\x00'
p4612
tp4613
Rp4614
ag594
(g598
S'\x07\x02\x00\x00'
p4615
tp4616
Rp4617
aa(lp4618
g594
(g598
S'\xf0\x01\x00\x00'
p4619
tp4620
Rp4621
ag594
(g598
S'\x08\x02\x00\x00'
p4622
tp4623
Rp4624
aa(lp4625
g594
(g598
S'\x08\x02\x00\x00'
p4626
tp4627
Rp4628
ag594
(g598
S'\x06\x02\x00\x00'
p4629
tp4630
Rp4631
aasS'units'
p4632
S'seconds'
p4633
sS'identifier'
p4634
S'matmult2'
p4635
sS'os'
p4636
S'CYGWIN_NT-6.1-1.7.32-0.274-5-3-x86_64-64bit'
p4637
s.