(dp0
S'results'
p1
(lp2
(lp3
F9.543e-05
aa(lp4
F0.00016995
aa(lp5
F0.00021082
aa(lp6
F0.00013218
aa(lp7
F0.00016439
aa(lp8
F6.566e-05
aa(lp9
F0.0001973
aa(lp10
F0.00014326
aa(lp11
F0.00020254
aa(lp12
F2.832e-05
aa(lp13
F0.00017029
aa(lp14
F0.00016294
aa(lp15
F1.551e-05
aa(lp16
F0.00014212
aa(lp17
F1.81e-05
aa(lp18
F4.75e-05
aa(lp19
F0.00011494
aa(lp20
F0.00016304
aa(lp21
F0.00020433
aa(lp22
F9.214e-05
aa(lp23
F7.955e-05
aa(lp24
F0.00013672
aa(lp25
F4.815e-05
aa(lp26
F0.00016428
aa(lp27
F7.722e-05
aa(lp28
F0.00013737
aa(lp29
F7.938e-05
aa(lp30
F0.00017222
aa(lp31
F0.0001699
aa(lp32
F2.513e-05
aa(lp33
F8.403e-05
aa(lp34
F0.00013791
aa(lp35
F7.419e-05
aa(lp36
F4.523e-05
aa(lp37
F0.00019596
aa(lp38
F0.0001972
aa(lp39
F4.939e-05
aa(lp40
F0.00013537
aa(lp41
F8.597e-05
aa(lp42
F4.474e-05
aa(lp43
F7.533e-05
aa(lp44
F1.972e-05
aa(lp45
F0.00019346
aa(lp46
F0.00017817
aa(lp47
F0.00011694
aa(lp48
F5.68e-05
aa(lp49
F0.00015509
aa(lp50
F9.89e-06
aa(lp51
F0.0001852
aa(lp52
F9.851e-05
aa(lp53
F0.00019547
aa(lp54
F0.00018779
aa(lp55
F4.464e-05
aa(lp56
F0.00011197
aa(lp57
F4.318e-05
aa(lp58
F0.00015304
aa(lp59
F1.038e-05
aa(lp60
F3.945e-05
aa(lp61
F7.106e-05
aa(lp62
F0.00011818
aa(lp63
F0.00015347
aa(lp64
F0.00012661
aa(lp65
F0.00020239
aa(lp66
F3.691e-05
aa(lp67
F0.00022056
aa(lp68
F0.00013418
aa(lp69
F8.652e-05
aa(lp70
F9.143e-05
aa(lp71
F0.00015764
aa(lp72
F0.00012932
aa(lp73
F0.00010824
aa(lp74
F9.468e-05
aa(lp75
F0.00015498
aa(lp76
F8.57e-05
aa(lp77
F0.00011699
aa(lp78
F1.675e-05
aa(lp79
F7.241e-05
aa(lp80
F2.626e-05
aa(lp81
F0.00012721
aa(lp82
F4.328e-05
aa(lp83
F2.475e-05
aa(lp84
F7.095e-05
aa(lp85
F0.00018628
aa(lp86
F3.19e-06
aa(lp87
F9.64e-05
aa(lp88
F2.47e-05
aa(lp89
F4.65e-06
aa(lp90
F0.00016543
aa(lp91
F0.00013229
aa(lp92
F1.173e-05
aa(lp93
F0.00016077
aa(lp94
F0.00019854
aa(lp95
F0.00014083
aa(lp96
F0.00018877
aa(lp97
F0.00011337
aa(lp98
F0.00017195
aa(lp99
F9.802e-05
aa(lp100
F3.161e-05
aa(lp101
F1.908e-05
aa(lp102
F4.86e-06
aasS'month'
p103
I10
sS'argument tags'
p104
(lp105
S'N'
p106
aS'-'
p107
asS'year'
p108
I2014
sS'arch'
p109
S'x86_64'
p110
sS'day'
p111
I2
sS'result tags'
p112
(lp113
S'Run Time'
p114
asS'arguments'
p115
(lp116
(lp117
I1765
aI1765
aa(lp118
I3144
aI3144
aa(lp119
I3900
aI3900
aa(lp120
I2445
aI2445
aa(lp121
I3041
aI3041
aa(lp122
I1214
aI1214
aa(lp123
I3650
aI3650
aa(lp124
I2650
aI2650
aa(lp125
I3747
aI3747
aa(lp126
I523
aI523
aa(lp127
I3150
aI3150
aa(lp128
I3014
aI3014
aa(lp129
I286
aI286
aa(lp130
I2629
aI2629
aa(lp131
I334
aI334
aa(lp132
I878
aI878
aa(lp133
I2126
aI2126
aa(lp134
I3016
aI3016
aa(lp135
I3780
aI3780
aa(lp136
I1704
aI1704
aa(lp137
I1471
aI1471
aa(lp138
I2529
aI2529
aa(lp139
I890
aI890
aa(lp140
I3039
aI3039
aa(lp141
I1428
aI1428
aa(lp142
I2541
aI2541
aa(lp143
I1468
aI1468
aa(lp144
I3186
aI3186
aa(lp145
I3143
aI3143
aa(lp146
I464
aI464
aa(lp147
I1554
aI1554
aa(lp148
I2551
aI2551
aa(lp149
I1372
aI1372
aa(lp150
I836
aI836
aa(lp151
I3625
aI3625
aa(lp152
I3648
aI3648
aa(lp153
I913
aI913
aa(lp154
I2504
aI2504
aa(lp155
I1590
aI1590
aa(lp156
I827
aI827
aa(lp157
I1393
aI1393
aa(lp158
I364
aI364
aa(lp159
I3579
aI3579
aa(lp160
I3296
aI3296
aa(lp161
I2163
aI2163
aa(lp162
I1050
aI1050
aa(lp163
I2869
aI2869
aa(lp164
I182
aI182
aa(lp165
I3426
aI3426
aa(lp166
I1822
aI1822
aa(lp167
I3616
aI3616
aa(lp168
I3474
aI3474
aa(lp169
I825
aI825
aa(lp170
I2071
aI2071
aa(lp171
I798
aI798
aa(lp172
I2831
aI2831
aa(lp173
I191
aI191
aa(lp174
I729
aI729
aa(lp175
I1314
aI1314
aa(lp176
I2186
aI2186
aa(lp177
I2839
aI2839
aa(lp178
I2342
aI2342
aa(lp179
I3744
aI3744
aa(lp180
I682
aI682
aa(lp181
I4077
aI4077
aa(lp182
I2482
aI2482
aa(lp183
I1600
aI1600
aa(lp184
I1691
aI1691
aa(lp185
I2916
aI2916
aa(lp186
I2392
aI2392
aa(lp187
I2002
aI2002
aa(lp188
I1751
aI1751
aa(lp189
I2867
aI2867
aa(lp190
I1585
aI1585
aa(lp191
I2164
aI2164
aa(lp192
I309
aI309
aa(lp193
I1339
aI1339
aa(lp194
I485
aI485
aa(lp195
I2353
aI2353
aa(lp196
I800
aI800
aa(lp197
I457
aI457
aa(lp198
I1312
aI1312
aa(lp199
I3446
aI3446
aa(lp200
I58
aI58
aa(lp201
I1783
aI1783
aa(lp202
I456
aI456
aa(lp203
I85
aI85
aa(lp204
I3060
aI3060
aa(lp205
I2447
aI2447
aa(lp206
I216
aI216
aa(lp207
I2974
aI2974
aa(lp208
I3673
aI3673
aa(lp209
I2605
aI2605
aa(lp210
I3492
aI3492
aa(lp211
I2097
aI2097
aa(lp212
I3181
aI3181
aa(lp213
I1813
aI1813
aa(lp214
I584
aI584
aa(lp215
I352
aI352
aa(lp216
I89
aI89
aasS'units'
p217
S'seconds'
p218
sS'identifier'
p219
S'tilera-dot-product'
p220
sS'os'
p221
S'CYGWIN_NT-6.1-1.7.32-0.274-5-3-x86_64-64bit'
p222
s.