(dp0
S'results'
p1
(lp2
(lp3
F0.0010756
aa(lp4
F0.01670034
aa(lp5
F0.04583121
aa(lp6
F0.08485306
aa(lp7
F0.14287029
aa(lp8
F0.26305263
aa(lp9
F0.29366801
aa(lp10
F0.41055674
aa(lp11
F0.58343195
aa(lp12
F0.72259666
aa(lp13
F0.82440567
aa(lp14
F0.98822171
aa(lp15
F0.00385138
aa(lp16
F0.05152113
aa(lp17
F0.17548173
aa(lp18
F0.35875931
aa(lp19
F0.56014815
aa(lp20
F0.80677453
aa(lp21
F1.1259188
aa(lp22
F1.42266538
aa(lp23
F1.95779837
aa(lp24
F2.55426073
aa(lp25
F3.21027369
aa(lp26
F4.05805158
aa(lp27
F0.00690878
aa(lp28
F0.10810701
aa(lp29
F0.25724933
aa(lp30
F0.55031105
aa(lp31
F0.95989434
aa(lp32
F1.46610448
aa(lp33
F2.16897582
aa(lp34
F2.61627642
aa(lp35
F3.48493728
aa(lp36
F4.68879216
aa(lp37
F5.17096755
aa(lp38
F9.11743715
aa(lp39
F0.00917782
aa(lp40
F0.11671856
aa(lp41
F0.39796104
aa(lp42
F0.80751145
aa(lp43
F1.37035513
aa(lp44
F1.98875041
aa(lp45
F3.07206689
aa(lp46
F4.18518345
aa(lp47
F5.17794063
aa(lp48
F6.67572072
aa(lp49
F8.29365842
aa(lp50
F9.32460346
aa(lp51
F0.01242817
aa(lp52
F0.13304514
aa(lp53
F0.46781654
aa(lp54
F1.08591873
aa(lp55
F1.87170861
aa(lp56
F2.72328728
aa(lp57
F3.75249768
aa(lp58
F5.54382677
aa(lp59
F6.74815229
aa(lp60
F8.88070679
aa(lp61
F10.51619344
aa(lp62
F12.46336749
aa(lp63
F0.02140745
aa(lp64
F0.24335759
aa(lp65
F0.71560987
aa(lp66
F1.4474605
aa(lp67
F2.2270334
aa(lp68
F3.35087703
aa(lp69
F4.64236686
aa(lp70
F6.44404212
aa(lp71
F8.17924111
aa(lp72
F10.9573916
aa(lp73
F13.03122001
aa(lp74
F15.33936253
aa(lp75
F0.02045362
aa(lp76
F0.25142126
aa(lp77
F0.74384297
aa(lp78
F1.66998614
aa(lp79
F2.81831705
aa(lp80
F4.10017469
aa(lp81
F5.90913541
aa(lp82
F8.01397171
aa(lp83
F10.14112769
aa(lp84
F13.09986616
aa(lp85
F16.13248175
aa(lp86
F18.59430856
aa(lp87
F0.02097948
aa(lp88
F0.41630539
aa(lp89
F0.93978144
aa(lp90
F1.70538093
aa(lp91
F3.17629842
aa(lp92
F4.83750551
aa(lp93
F7.05516245
aa(lp94
F8.93700561
aa(lp95
F11.38573095
aa(lp96
F14.69523038
aa(lp97
F18.34785957
aa(lp98
F21.88090854
aa(lp99
F0.03736845
aa(lp100
F0.32306641
aa(lp101
F1.0691182
aa(lp102
F1.98726338
aa(lp103
F3.65667937
aa(lp104
F5.44064947
aa(lp105
F7.83782703
aa(lp106
F10.36225682
aa(lp107
F12.92468411
aa(lp108
F17.46785848
aa(lp109
F20.1484294
aa(lp110
F24.75155297
aa(lp111
F0.03000176
aa(lp112
F0.33807294
aa(lp113
F1.25302656
aa(lp114
F2.50272071
aa(lp115
F4.17926421
aa(lp116
F5.76208363
aa(lp117
F8.31417229
aa(lp118
F11.41705836
aa(lp119
F14.84161795
aa(lp120
F18.61122084
aa(lp121
F23.53760774
aa(lp122
F27.63454345
aa(lp123
F0.02941071
aa(lp124
F0.48497047
aa(lp125
F1.15333444
aa(lp126
F2.79497048
aa(lp127
F4.52087702
aa(lp128
F6.67974932
aa(lp129
F9.84840731
aa(lp130
F12.92370334
aa(lp131
F15.96925502
aa(lp132
F21.32589375
aa(lp133
F26.88428217
aa(lp134
F30.57702232
aa(lp135
F0.03231444
aa(lp136
F0.45146748
aa(lp137
F1.18904823
aa(lp138
F3.00029054
aa(lp139
F4.7621307
aa(lp140
F7.11734477
aa(lp141
F11.03634169
aa(lp142
F13.94927424
aa(lp143
F17.59100264
aa(lp144
F22.35699861
aa(lp145
F29.07220967
aa(lp146
F50.63080732
aa(lp147
F29.27774439
aa(lp148
F6.3858982
aa(lp149
F5.37967249
aa(lp150
F0.44143037
aa(lp151
F3.83270866
aa(lp152
F2.9826053
aa(lp153
F3.19989181
aa(lp154
F2.24929031
aa(lp155
F19.70804701
aa(lp156
F2.07042195
aa(lp157
F10.84803575
aa(lp158
F0.78839732
aa(lp159
F6.29862298
aa(lp160
F3.2035746
aa(lp161
F8.06953172
aa(lp162
F14.27043754
aa(lp163
F0.21410838
aa(lp164
F3.41127315
aa(lp165
F0.006152
aa(lp166
F0.01898997
aa(lp167
F0.01823728
aa(lp168
F0.04616397
aa(lp169
F13.44959812
aa(lp170
F1.87851315
aa(lp171
F8.09773327
aa(lp172
F0.07524303
aa(lp173
F2.15975191
aa(lp174
F11.5558771
aa(lp175
F12.49095728
aa(lp176
F0.0594474
aa(lp177
F0.02549613
aa(lp178
F16.78247569
aa(lp179
F1.66022222
aa(lp180
F1.16587643
aa(lp181
F0.9217894
aa(lp182
F0.08558334
aa(lp183
F8.20154861
aa(lp184
F4.76479752
aa(lp185
F23.30156593
aa(lp186
F2.55888429
aa(lp187
F31.3573516
aa(lp188
F0.74383533
aa(lp189
F8.32795924
aa(lp190
F28.1375224
aa(lp191
F11.57085971
aa(lp192
F1.17264963
aa(lp193
F3.46556948
aa(lp194
F25.87443301
aa(lp195
F2.19478839
aa(lp196
F0.74460308
aa(lp197
F0.00255951
aa(lp198
F0.92674581
aa(lp199
F18.55114303
aa(lp200
F0.60916069
aa(lp201
F0.02499363
aa(lp202
F16.90290164
aa(lp203
F0.26706606
aa(lp204
F13.85590372
aa(lp205
F6.46056858
aa(lp206
F1.90789991
aa(lp207
F4.52834089
aa(lp208
F2.16175265
aa(lp209
F0.01568001
aa(lp210
F0.40905356
aa(lp211
F1.16043663
aa(lp212
F0.04359413
aa(lp213
F5.08203055
aa(lp214
F0.27694922
aa(lp215
F0.15836156
aa(lp216
F8.43239684
aa(lp217
F17.91250692
aa(lp218
F10.31379675
aa(lp219
F4.33942206
aa(lp220
F11.73237163
aa(lp221
F1.66482331
aa(lp222
F7.45034447
aa(lp223
F9.83193253
aa(lp224
F0.65052891
aa(lp225
F6.53262848
aa(lp226
F15.33212332
aa(lp227
F25.02095633
aa(lp228
F9.39026757
aa(lp229
F1.41990904
aa(lp230
F3.66703145
aa(lp231
F0.77157558
aa(lp232
F0.67830795
aa(lp233
F15.1104344
aa(lp234
F0.34591917
aa(lp235
F20.25902666
aa(lp236
F10.65236977
aa(lp237
F7.45624456
aa(lp238
F3.85548699
aa(lp239
F2.26203782
aa(lp240
F1.6921508
aa(lp241
F1.16469269
aa(lp242
F5.33597175
aa(lp243
F5.77097318
aa(lp244
F6.6501773
aa(lp245
F0.35058339
aa(lp246
F10.768825
aasS'month'
p247
I10
sS'argument tags'
p248
(lp249
S'M'
p250
aS'N'
p251
asS'year'
p252
I2014
sS'arch'
p253
S'x86_64'
p254
sS'day'
p255
I14
sS'result tags'
p256
(lp257
S'Run Time'
p258
asS'arguments'
p259
(lp260
(lp261
cnumpy.core.multiarray
scalar
p262
(cnumpy
dtype
p263
(S'i4'
p264
I0
I1
tp265
Rp266
(I3
S'<'
p267
NNNI-1
I-1
I0
tp268
bS'\x11\x00\x00\x00'
p269
tp270
Rp271
ag262
(g266
S' \x00\x00\x00'
p272
tp273
Rp274
aa(lp275
g262
(g266
S'A\x00\x00\x00'
p276
tp277
Rp278
ag262
(g266
S'"\x00\x00\x00'
p279
tp280
Rp281
aa(lp282
g262
(g266
S'o\x00\x00\x00'
p283
tp284
Rp285
ag262
(g266
S' \x00\x00\x00'
p286
tp287
Rp288
aa(lp289
g262
(g266
S'\x97\x00\x00\x00'
p290
tp291
Rp292
ag262
(g266
S' \x00\x00\x00'
p293
tp294
Rp295
aa(lp296
g262
(g266
S'\xc4\x00\x00\x00'
p297
tp298
Rp299
ag262
(g266
S' \x00\x00\x00'
p300
tp301
Rp302
aa(lp303
g262
(g266
S'\xf4\x00\x00\x00'
p304
tp305
Rp306
ag262
(g266
S'&\x00\x00\x00'
p307
tp308
Rp309
aa(lp310
g262
(g266
S'\x19\x01\x00\x00'
p311
tp312
Rp313
ag262
(g266
S' \x00\x00\x00'
p314
tp315
Rp316
aa(lp317
g262
(g266
S'L\x01\x00\x00'
p318
tp319
Rp320
ag262
(g266
S' \x00\x00\x00'
p321
tp322
Rp323
aa(lp324
g262
(g266
S'{\x01\x00\x00'
p325
tp326
Rp327
ag262
(g266
S'#\x00\x00\x00'
p328
tp329
Rp330
aa(lp331
g262
(g266
S'\xa0\x01\x00\x00'
p332
tp333
Rp334
ag262
(g266
S'$\x00\x00\x00'
p335
tp336
Rp337
aa(lp338
g262
(g266
S'\xd6\x01\x00\x00'
p339
tp340
Rp341
ag262
(g266
S' \x00\x00\x00'
p342
tp343
Rp344
aa(lp345
g262
(g266
S'\x00\x02\x00\x00'
p346
tp347
Rp348
ag262
(g266
S' \x00\x00\x00'
p349
tp350
Rp351
aa(lp352
g262
(g266
S'\x11\x00\x00\x00'
p353
tp354
Rp355
ag262
(g266
S't\x00\x00\x00'
p356
tp357
Rp358
aa(lp359
g262
(g266
S';\x00\x00\x00'
p360
tp361
Rp362
ag262
(g266
S'\x80\x00\x00\x00'
p363
tp364
Rp365
aa(lp366
g262
(g266
S'o\x00\x00\x00'
p367
tp368
Rp369
ag262
(g266
S'|\x00\x00\x00'
p370
tp371
Rp372
aa(lp373
g262
(g266
S'\x9a\x00\x00\x00'
p374
tp375
Rp376
ag262
(g266
S'\x82\x00\x00\x00'
p377
tp378
Rp379
aa(lp380
g262
(g266
S'\xc5\x00\x00\x00'
p381
tp382
Rp383
ag262
(g266
S'z\x00\x00\x00'
p384
tp385
Rp386
aa(lp387
g262
(g266
S'\xf3\x00\x00\x00'
p388
tp389
Rp390
ag262
(g266
S'u\x00\x00\x00'
p391
tp392
Rp393
aa(lp394
g262
(g266
S'\x19\x01\x00\x00'
p395
tp396
Rp397
ag262
(g266
S'|\x00\x00\x00'
p398
tp399
Rp400
aa(lp401
g262
(g266
S'E\x01\x00\x00'
p402
tp403
Rp404
ag262
(g266
S't\x00\x00\x00'
p405
tp406
Rp407
aa(lp408
g262
(g266
S'y\x01\x00\x00'
p409
tp410
Rp411
ag262
(g266
S'w\x00\x00\x00'
p412
tp413
Rp414
aa(lp415
g262
(g266
S'\xb3\x01\x00\x00'
p416
tp417
Rp418
ag262
(g266
S'u\x00\x00\x00'
p419
tp420
Rp421
aa(lp422
g262
(g266
S'\xd2\x01\x00\x00'
p423
tp424
Rp425
ag262
(g266
S'{\x00\x00\x00'
p426
tp427
Rp428
aa(lp429
g262
(g266
S'\x00\x02\x00\x00'
p430
tp431
Rp432
ag262
(g266
S'\x84\x00\x00\x00'
p433
tp434
Rp435
aa(lp436
g262
(g266
S'\x11\x00\x00\x00'
p437
tp438
Rp439
ag262
(g266
S'\xcf\x00\x00\x00'
p440
tp441
Rp442
aa(lp443
g262
(g266
S'@\x00\x00\x00'
p444
tp445
Rp446
ag262
(g266
S'\xd7\x00\x00\x00'
p447
tp448
Rp449
aa(lp450
g262
(g266
S'g\x00\x00\x00'
p451
tp452
Rp453
ag262
(g266
S'\xd1\x00\x00\x00'
p454
tp455
Rp456
aa(lp457
g262
(g266
S'\x98\x00\x00\x00'
p458
tp459
Rp460
ag262
(g266
S'\xcd\x00\x00\x00'
p461
tp462
Rp463
aa(lp464
g262
(g266
S'\xc4\x00\x00\x00'
p465
tp466
Rp467
ag262
(g266
S'\xd1\x00\x00\x00'
p468
tp469
Rp470
aa(lp471
g262
(g266
S'\xf3\x00\x00\x00'
p472
tp473
Rp474
ag262
(g266
S'\xd4\x00\x00\x00'
p475
tp476
Rp477
aa(lp478
g262
(g266
S'"\x01\x00\x00'
p479
tp480
Rp481
ag262
(g266
S'\xd1\x00\x00\x00'
p482
tp483
Rp484
aa(lp485
g262
(g266
S'F\x01\x00\x00'
p486
tp487
Rp488
ag262
(g266
S'\xd2\x00\x00\x00'
p489
tp490
Rp491
aa(lp492
g262
(g266
S'x\x01\x00\x00'
p493
tp494
Rp495
ag262
(g266
S'\xd1\x00\x00\x00'
p496
tp497
Rp498
aa(lp499
g262
(g266
S'\xab\x01\x00\x00'
p500
tp501
Rp502
ag262
(g266
S'\xd5\x00\x00\x00'
p503
tp504
Rp505
aa(lp506
g262
(g266
S'\xd6\x01\x00\x00'
p507
tp508
Rp509
ag262
(g266
S'\xc9\x00\x00\x00'
p510
tp511
Rp512
aa(lp513
g262
(g266
S'\xfe\x01\x00\x00'
p514
tp515
Rp516
ag262
(g266
S'\xd6\x00\x00\x00'
p517
tp518
Rp519
aa(lp520
g262
(g266
S'\x10\x00\x00\x00'
p521
tp522
Rp523
ag262
(g266
S')\x01\x00\x00'
p524
tp525
Rp526
aa(lp527
g262
(g266
S'8\x00\x00\x00'
p528
tp529
Rp530
ag262
(g266
S'3\x01\x00\x00'
p531
tp532
Rp533
aa(lp534
g262
(g266
S'h\x00\x00\x00'
p535
tp536
Rp537
ag262
(g266
S'.\x01\x00\x00'
p538
tp539
Rp540
aa(lp541
g262
(g266
S'\x94\x00\x00\x00'
p542
tp543
Rp544
ag262
(g266
S'0\x01\x00\x00'
p545
tp546
Rp547
aa(lp548
g262
(g266
S'\xc2\x00\x00\x00'
p549
tp550
Rp551
ag262
(g266
S'/\x01\x00\x00'
p552
tp553
Rp554
aa(lp555
g262
(g266
S'\xec\x00\x00\x00'
p556
tp557
Rp558
ag262
(g266
S')\x01\x00\x00'
p559
tp560
Rp561
aa(lp562
g262
(g266
S'%\x01\x00\x00'
p563
tp564
Rp565
ag262
(g266
S'(\x01\x00\x00'
p566
tp567
Rp568
aa(lp569
g262
(g266
S'Q\x01\x00\x00'
p570
tp571
Rp572
ag262
(g266
S'/\x01\x00\x00'
p573
tp574
Rp575
aa(lp576
g262
(g266
S'}\x01\x00\x00'
p577
tp578
Rp579
ag262
(g266
S'(\x01\x00\x00'
p580
tp581
Rp582
aa(lp583
g262
(g266
S'\xab\x01\x00\x00'
p584
tp585
Rp586
ag262
(g266
S'-\x01\x00\x00'
p587
tp588
Rp589
aa(lp590
g262
(g266
S'\xd3\x01\x00\x00'
p591
tp592
Rp593
ag262
(g266
S'7\x01\x00\x00'
p594
tp595
Rp596
aa(lp597
g262
(g266
S'\x00\x02\x00\x00'
p598
tp599
Rp600
ag262
(g266
S')\x01\x00\x00'
p601
tp602
Rp603
aa(lp604
g262
(g266
S'\x10\x00\x00\x00'
p605
tp606
Rp607
ag262
(g266
S'\x8b\x01\x00\x00'
p608
tp609
Rp610
aa(lp611
g262
(g266
S'4\x00\x00\x00'
p612
tp613
Rp614
ag262
(g266
S'\x91\x01\x00\x00'
p615
tp616
Rp617
aa(lp618
g262
(g266
S'c\x00\x00\x00'
p619
tp620
Rp621
ag262
(g266
S'\x85\x01\x00\x00'
p622
tp623
Rp624
aa(lp625
g262
(g266
S'\x95\x00\x00\x00'
p626
tp627
Rp628
ag262
(g266
S'\x8d\x01\x00\x00'
p629
tp630
Rp631
aa(lp632
g262
(g266
S'\xc7\x00\x00\x00'
p633
tp634
Rp635
ag262
(g266
S'\x82\x01\x00\x00'
p636
tp637
Rp638
aa(lp639
g262
(g266
S'\xef\x00\x00\x00'
p640
tp641
Rp642
ag262
(g266
S'\x82\x01\x00\x00'
p643
tp644
Rp645
aa(lp646
g262
(g266
S'\x18\x01\x00\x00'
p647
tp648
Rp649
ag262
(g266
S'\x86\x01\x00\x00'
p650
tp651
Rp652
aa(lp653
g262
(g266
S'P\x01\x00\x00'
p654
tp655
Rp656
ag262
(g266
S'\x91\x01\x00\x00'
p657
tp658
Rp659
aa(lp660
g262
(g266
S't\x01\x00\x00'
p661
tp662
Rp663
ag262
(g266
S'\x8c\x01\x00\x00'
p664
tp665
Rp666
aa(lp667
g262
(g266
S'\xa9\x01\x00\x00'
p668
tp669
Rp670
ag262
(g266
S'\x8e\x01\x00\x00'
p671
tp672
Rp673
aa(lp674
g262
(g266
S'\xd1\x01\x00\x00'
p675
tp676
Rp677
ag262
(g266
S'\x8d\x01\x00\x00'
p678
tp679
Rp680
aa(lp681
g262
(g266
S'\xfc\x01\x00\x00'
p682
tp683
Rp684
ag262
(g266
S'\x8c\x01\x00\x00'
p685
tp686
Rp687
aa(lp688
g262
(g266
S'\x13\x00\x00\x00'
p689
tp690
Rp691
ag262
(g266
S'\xe1\x01\x00\x00'
p692
tp693
Rp694
aa(lp695
g262
(g266
S'?\x00\x00\x00'
p696
tp697
Rp698
ag262
(g266
S'\xe2\x01\x00\x00'
p699
tp700
Rp701
aa(lp702
g262
(g266
S'n\x00\x00\x00'
p703
tp704
Rp705
ag262
(g266
S'\xdf\x01\x00\x00'
p706
tp707
Rp708
aa(lp709
g262
(g266
S'\x9b\x00\x00\x00'
p710
tp711
Rp712
ag262
(g266
S'\xe8\x01\x00\x00'
p713
tp714
Rp715
aa(lp716
g262
(g266
S'\xc1\x00\x00\x00'
p717
tp718
Rp719
ag262
(g266
S'\xe6\x01\x00\x00'
p720
tp721
Rp722
aa(lp723
g262
(g266
S'\xed\x00\x00\x00'
p724
tp725
Rp726
ag262
(g266
S'\xe5\x01\x00\x00'
p727
tp728
Rp729
aa(lp730
g262
(g266
S'\x17\x01\x00\x00'
p731
tp732
Rp733
ag262
(g266
S'\xe3\x01\x00\x00'
p734
tp735
Rp736
aa(lp737
g262
(g266
S'G\x01\x00\x00'
p738
tp739
Rp740
ag262
(g266
S'\xe8\x01\x00\x00'
p741
tp742
Rp743
aa(lp744
g262
(g266
S's\x01\x00\x00'
p745
tp746
Rp747
ag262
(g266
S'\xe2\x01\x00\x00'
p748
tp749
Rp750
aa(lp751
g262
(g266
S'\xad\x01\x00\x00'
p752
tp753
Rp754
ag262
(g266
S'\xe2\x01\x00\x00'
p755
tp756
Rp757
aa(lp758
g262
(g266
S'\xd5\x01\x00\x00'
p759
tp760
Rp761
ag262
(g266
S'\xde\x01\x00\x00'
p762
tp763
Rp764
aa(lp765
g262
(g266
S'\xfc\x01\x00\x00'
p766
tp767
Rp768
ag262
(g266
S'\xe0\x01\x00\x00'
p769
tp770
Rp771
aa(lp772
g262
(g266
S'\x11\x00\x00\x00'
p773
tp774
Rp775
ag262
(g266
S'>\x02\x00\x00'
p776
tp777
Rp778
aa(lp779
g262
(g266
S'<\x00\x00\x00'
p780
tp781
Rp782
ag262
(g266
S'7\x02\x00\x00'
p783
tp784
Rp785
aa(lp786
g262
(g266
S'g\x00\x00\x00'
p787
tp788
Rp789
ag262
(g266
S'8\x02\x00\x00'
p790
tp791
Rp792
aa(lp793
g262
(g266
S'\x99\x00\x00\x00'
p794
tp795
Rp796
ag262
(g266
S'B\x02\x00\x00'
p797
tp798
Rp799
aa(lp800
g262
(g266
S'\xc9\x00\x00\x00'
p801
tp802
Rp803
ag262
(g266
S'5\x02\x00\x00'
p804
tp805
Rp806
aa(lp807
g262
(g266
S'\xf2\x00\x00\x00'
p808
tp809
Rp810
ag262
(g266
S'7\x02\x00\x00'
p811
tp812
Rp813
aa(lp814
g262
(g266
S'"\x01\x00\x00'
p815
tp816
Rp817
ag262
(g266
S'9\x02\x00\x00'
p818
tp819
Rp820
aa(lp821
g262
(g266
S'O\x01\x00\x00'
p822
tp823
Rp824
ag262
(g266
S'B\x02\x00\x00'
p825
tp826
Rp827
aa(lp828
g262
(g266
S'{\x01\x00\x00'
p829
tp830
Rp831
ag262
(g266
S';\x02\x00\x00'
p832
tp833
Rp834
aa(lp835
g262
(g266
S'\xad\x01\x00\x00'
p836
tp837
Rp838
ag262
(g266
S'>\x02\x00\x00'
p839
tp840
Rp841
aa(lp842
g262
(g266
S'\xdb\x01\x00\x00'
p843
tp844
Rp845
ag262
(g266
S'?\x02\x00\x00'
p846
tp847
Rp848
aa(lp849
g262
(g266
S'\x00\x02\x00\x00'
p850
tp851
Rp852
ag262
(g266
S'9\x02\x00\x00'
p853
tp854
Rp855
aa(lp856
g262
(g266
S'\x10\x00\x00\x00'
p857
tp858
Rp859
ag262
(g266
S'\x99\x02\x00\x00'
p860
tp861
Rp862
aa(lp863
g262
(g266
S'>\x00\x00\x00'
p864
tp865
Rp866
ag262
(g266
S'\x99\x02\x00\x00'
p867
tp868
Rp869
aa(lp870
g262
(g266
S'k\x00\x00\x00'
p871
tp872
Rp873
ag262
(g266
S'\x99\x02\x00\x00'
p874
tp875
Rp876
aa(lp877
g262
(g266
S'\x90\x00\x00\x00'
p878
tp879
Rp880
ag262
(g266
S'\x9a\x02\x00\x00'
p881
tp882
Rp883
aa(lp884
g262
(g266
S'\xc5\x00\x00\x00'
p885
tp886
Rp887
ag262
(g266
S'\x97\x02\x00\x00'
p888
tp889
Rp890
aa(lp891
g262
(g266
S'\xf4\x00\x00\x00'
p892
tp893
Rp894
ag262
(g266
S'\x92\x02\x00\x00'
p895
tp896
Rp897
aa(lp898
g262
(g266
S'$\x01\x00\x00'
p899
tp900
Rp901
ag262
(g266
S'\x9e\x02\x00\x00'
p902
tp903
Rp904
aa(lp905
g262
(g266
S'H\x01\x00\x00'
p906
tp907
Rp908
ag262
(g266
S'\xa0\x02\x00\x00'
p909
tp910
Rp911
aa(lp912
g262
(g266
S't\x01\x00\x00'
p913
tp914
Rp915
ag262
(g266
S'\x98\x02\x00\x00'
p916
tp917
Rp918
aa(lp919
g262
(g266
S'\xa6\x01\x00\x00'
p920
tp921
Rp922
ag262
(g266
S'\x98\x02\x00\x00'
p923
tp924
Rp925
aa(lp926
g262
(g266
S'\xd8\x01\x00\x00'
p927
tp928
Rp929
ag262
(g266
S'\x95\x02\x00\x00'
p930
tp931
Rp932
aa(lp933
g262
(g266
S'\x00\x02\x00\x00'
p934
tp935
Rp936
ag262
(g266
S'\x9c\x02\x00\x00'
p937
tp938
Rp939
aa(lp940
g262
(g266
S'\x14\x00\x00\x00'
p941
tp942
Rp943
ag262
(g266
S'\xf5\x02\x00\x00'
p944
tp945
Rp946
aa(lp947
g262
(g266
S';\x00\x00\x00'
p948
tp949
Rp950
ag262
(g266
S'\xf0\x02\x00\x00'
p951
tp952
Rp953
aa(lp954
g262
(g266
S'k\x00\x00\x00'
p955
tp956
Rp957
ag262
(g266
S'\xf4\x02\x00\x00'
p958
tp959
Rp960
aa(lp961
g262
(g266
S'\x92\x00\x00\x00'
p962
tp963
Rp964
ag262
(g266
S'\xf3\x02\x00\x00'
p965
tp966
Rp967
aa(lp968
g262
(g266
S'\xc7\x00\x00\x00'
p969
tp970
Rp971
ag262
(g266
S'\xec\x02\x00\x00'
p972
tp973
Rp974
aa(lp975
g262
(g266
S'\xf0\x00\x00\x00'
p976
tp977
Rp978
ag262
(g266
S'\xfd\x02\x00\x00'
p979
tp980
Rp981
aa(lp982
g262
(g266
S'!\x01\x00\x00'
p983
tp984
Rp985
ag262
(g266
S'\xf6\x02\x00\x00'
p986
tp987
Rp988
aa(lp989
g262
(g266
S'M\x01\x00\x00'
p990
tp991
Rp992
ag262
(g266
S'\xf2\x02\x00\x00'
p993
tp994
Rp995
aa(lp996
g262
(g266
S't\x01\x00\x00'
p997
tp998
Rp999
ag262
(g266
S'\xf0\x02\x00\x00'
p1000
tp1001
Rp1002
aa(lp1003
g262
(g266
S'\xad\x01\x00\x00'
p1004
tp1005
Rp1006
ag262
(g266
S'\xfa\x02\x00\x00'
p1007
tp1008
Rp1009
aa(lp1010
g262
(g266
S'\xd0\x01\x00\x00'
p1011
tp1012
Rp1013
ag262
(g266
S'\xee\x02\x00\x00'
p1014
tp1015
Rp1016
aa(lp1017
g262
(g266
S'\x00\x02\x00\x00'
p1018
tp1019
Rp1020
ag262
(g266
S'\xf3\x02\x00\x00'
p1021
tp1022
Rp1023
aa(lp1024
g262
(g266
S'\x11\x00\x00\x00'
p1025
tp1026
Rp1027
ag262
(g266
S'I\x03\x00\x00'
p1028
tp1029
Rp1030
aa(lp1031
g262
(g266
S'9\x00\x00\x00'
p1032
tp1033
Rp1034
ag262
(g266
S'K\x03\x00\x00'
p1035
tp1036
Rp1037
aa(lp1038
g262
(g266
S'n\x00\x00\x00'
p1039
tp1040
Rp1041
ag262
(g266
S'G\x03\x00\x00'
p1042
tp1043
Rp1044
aa(lp1045
g262
(g266
S'\x9b\x00\x00\x00'
p1046
tp1047
Rp1048
ag262
(g266
S'L\x03\x00\x00'
p1049
tp1050
Rp1051
aa(lp1052
g262
(g266
S'\xc8\x00\x00\x00'
p1053
tp1054
Rp1055
ag262
(g266
S'N\x03\x00\x00'
p1056
tp1057
Rp1058
aa(lp1059
g262
(g266
S'\xeb\x00\x00\x00'
p1060
tp1061
Rp1062
ag262
(g266
S'M\x03\x00\x00'
p1063
tp1064
Rp1065
aa(lp1066
g262
(g266
S'\x1b\x01\x00\x00'
p1067
tp1068
Rp1069
ag262
(g266
S'G\x03\x00\x00'
p1070
tp1071
Rp1072
aa(lp1073
g262
(g266
S'J\x01\x00\x00'
p1074
tp1075
Rp1076
ag262
(g266
S'M\x03\x00\x00'
p1077
tp1078
Rp1079
aa(lp1080
g262
(g266
S'y\x01\x00\x00'
p1081
tp1082
Rp1083
ag262
(g266
S'G\x03\x00\x00'
p1084
tp1085
Rp1086
aa(lp1087
g262
(g266
S'\xa6\x01\x00\x00'
p1088
tp1089
Rp1090
ag262
(g266
S'F\x03\x00\x00'
p1091
tp1092
Rp1093
aa(lp1094
g262
(g266
S'\xda\x01\x00\x00'
p1095
tp1096
Rp1097
ag262
(g266
S'F\x03\x00\x00'
p1098
tp1099
Rp1100
aa(lp1101
g262
(g266
S'\x00\x02\x00\x00'
p1102
tp1103
Rp1104
ag262
(g266
S'J\x03\x00\x00'
p1105
tp1106
Rp1107
aa(lp1108
g262
(g266
S'\x10\x00\x00\x00'
p1109
tp1110
Rp1111
ag262
(g266
S'\xa4\x03\x00\x00'
p1112
tp1113
Rp1114
aa(lp1115
g262
(g266
S'A\x00\x00\x00'
p1116
tp1117
Rp1118
ag262
(g266
S'\xa2\x03\x00\x00'
p1119
tp1120
Rp1121
aa(lp1122
g262
(g266
S'd\x00\x00\x00'
p1123
tp1124
Rp1125
ag262
(g266
S'\xa6\x03\x00\x00'
p1126
tp1127
Rp1128
aa(lp1129
g262
(g266
S'\x9c\x00\x00\x00'
p1130
tp1131
Rp1132
ag262
(g266
S'\xa2\x03\x00\x00'
p1133
tp1134
Rp1135
aa(lp1136
g262
(g266
S'\xc6\x00\x00\x00'
p1137
tp1138
Rp1139
ag262
(g266
S'\xa6\x03\x00\x00'
p1140
tp1141
Rp1142
aa(lp1143
g262
(g266
S'\xf0\x00\x00\x00'
p1144
tp1145
Rp1146
ag262
(g266
S'\xaa\x03\x00\x00'
p1147
tp1148
Rp1149
aa(lp1150
g262
(g266
S'!\x01\x00\x00'
p1151
tp1152
Rp1153
ag262
(g266
S'\xa3\x03\x00\x00'
p1154
tp1155
Rp1156
aa(lp1157
g262
(g266
S'N\x01\x00\x00'
p1158
tp1159
Rp1160
ag262
(g266
S'\xa5\x03\x00\x00'
p1161
tp1162
Rp1163
aa(lp1164
g262
(g266
S's\x01\x00\x00'
p1165
tp1166
Rp1167
ag262
(g266
S'\xa4\x03\x00\x00'
p1168
tp1169
Rp1170
aa(lp1171
g262
(g266
S'\xab\x01\x00\x00'
p1172
tp1173
Rp1174
ag262
(g266
S'\xa8\x03\x00\x00'
p1175
tp1176
Rp1177
aa(lp1178
g262
(g266
S'\xd5\x01\x00\x00'
p1179
tp1180
Rp1181
ag262
(g266
S'\xaa\x03\x00\x00'
p1182
tp1183
Rp1184
aa(lp1185
g262
(g266
S'\x00\x02\x00\x00'
p1186
tp1187
Rp1188
ag262
(g266
S'\xa3\x03\x00\x00'
p1189
tp1190
Rp1191
aa(lp1192
g262
(g266
S'\x10\x00\x00\x00'
p1193
tp1194
Rp1195
ag262
(g266
S'\x00\x04\x00\x00'
p1196
tp1197
Rp1198
aa(lp1199
g262
(g266
S'<\x00\x00\x00'
p1200
tp1201
Rp1202
ag262
(g266
S'\xf7\x03\x00\x00'
p1203
tp1204
Rp1205
aa(lp1206
g262
(g266
S'a\x00\x00\x00'
p1207
tp1208
Rp1209
ag262
(g266
S'\x00\x04\x00\x00'
p1210
tp1211
Rp1212
aa(lp1213
g262
(g266
S'\x99\x00\x00\x00'
p1214
tp1215
Rp1216
ag262
(g266
S'\x00\x04\x00\x00'
p1217
tp1218
Rp1219
aa(lp1220
g262
(g266
S'\xc2\x00\x00\x00'
p1221
tp1222
Rp1223
ag262
(g266
S'\xff\x03\x00\x00'
p1224
tp1225
Rp1226
aa(lp1227
g262
(g266
S'\xed\x00\x00\x00'
p1228
tp1229
Rp1230
ag262
(g266
S'\x00\x04\x00\x00'
p1231
tp1232
Rp1233
aa(lp1234
g262
(g266
S'!\x01\x00\x00'
p1235
tp1236
Rp1237
ag262
(g266
S'\xff\x03\x00\x00'
p1238
tp1239
Rp1240
aa(lp1241
g262
(g266
S'K\x01\x00\x00'
p1242
tp1243
Rp1244
ag262
(g266
S'\x00\x04\x00\x00'
p1245
tp1246
Rp1247
aa(lp1248
g262
(g266
S't\x01\x00\x00'
p1249
tp1250
Rp1251
ag262
(g266
S'\xfc\x03\x00\x00'
p1252
tp1253
Rp1254
aa(lp1255
g262
(g266
S'\xa3\x01\x00\x00'
p1256
tp1257
Rp1258
ag262
(g266
S'\xfc\x03\x00\x00'
p1259
tp1260
Rp1261
aa(lp1262
g262
(g266
S'\xdb\x01\x00\x00'
p1263
tp1264
Rp1265
ag262
(g266
S'\xff\x03\x00\x00'
p1266
tp1267
Rp1268
aa(lp1269
g262
(g266
S'\xff\x01\x00\x00'
p1270
tp1271
Rp1272
ag262
(g266
S'\xff\x03\x00\x00'
p1273
tp1274
Rp1275
aa(lp1276
I447
aI888
aa(lp1277
I384
aI355
aa(lp1278
I247
aI714
aa(lp1279
I76
aI619
aa(lp1280
I300
aI349
aa(lp1281
I233
aI439
aa(lp1282
I407
aI166
aa(lp1283
I508
aI75
aa(lp1284
I505
aI620
aa(lp1285
I128
aI980
aa(lp1286
I508
aI348
aa(lp1287
I161
aI255
aa(lp1288
I288
aI615
aa(lp1289
I176
aI797
aa(lp1290
I481
aI262
aa(lp1291
I403
aI707
aa(lp1292
I152
aI79
aa(lp1293
I212
aI616
aa(lp1294
I18
aI165
aa(lp1295
I17
aI533
aa(lp1296
I21
aI339
aa(lp1297
I23
aI708
aa(lp1298
I456
aI522
aa(lp1299
I131
aI887
aa(lp1300
I271
aI891
aa(lp1301
I25
aI976
aa(lp1302
I330
aI164
aa(lp1303
I309
aI975
aa(lp1304
I404
aI617
aa(lp1305
I83
aI75
aa(lp1306
I29
aI258
aa(lp1307
I390
aI886
aa(lp1308
I175
aI439
aa(lp1309
I246
aI166
aa(lp1310
I147
aI351
aa(lp1311
I28
aI885
aa(lp1312
I354
aI530
aa(lp1313
I298
aI435
aa(lp1314
I512
aI711
aa(lp1315
I171
aI709
aa(lp1316
I506
aI978
aa(lp1317
I297
aI73
aa(lp1318
I388
aI438
aa(lp1319
I504
aI885
aa(lp1320
I341
aI802
aa(lp1321
I134
aI529
aa(lp1322
I342
aI253
aa(lp1323
I509
aI798
aa(lp1324
I264
aI257
aa(lp1325
I87
aI797
aa(lp1326
I17
aI77
aa(lp1327
I103
aI707
aa(lp1328
I391
aI973
aa(lp1329
I107
aI432
aa(lp1330
I18
aI626
aa(lp1331
I506
aI531
aa(lp1332
I93
aI260
aa(lp1333
I508
aI437
aa(lp1334
I231
aI979
aa(lp1335
I157
aI627
aa(lp1336
I203
aI890
aa(lp1337
I228
aI343
aa(lp1338
I17
aI440
aa(lp1339
I215
aI76
aa(lp1340
I365
aI75
aa(lp1341
I21
aI802
aa(lp1342
I413
aI249
aa(lp1343
I80
aI351
aa(lp1344
I92
aI162
aa(lp1345
I444
aI350
aa(lp1346
I451
aI707
aa(lp1347
I401
aI519
aa(lp1348
I259
aI524
aa(lp1349
I327
aI884
aa(lp1350
I448
aI72
aa(lp1351
I511
aI174
aa(lp1352
I334
aI712
aa(lp1353
I182
aI170
aa(lp1354
I257
aI800
aa(lp1355
I396
aI786
aa(lp1356
I452
aI980
aa(lp1357
I350
aI620
aa(lp1358
I215
aI260
aa(lp1359
I175
aI970
aa(lp1360
I84
aI886
aa(lp1361
I75
aI977
aa(lp1362
I442
aI622
aa(lp1363
I74
aI511
aa(lp1364
I452
aI794
aa(lp1365
I444
aI438
aa(lp1366
I291
aI713
aa(lp1367
I448
aI166
aa(lp1368
I187
aI524
aa(lp1369
I131
aI799
aa(lp1370
I124
aI607
aa(lp1371
I348
aI361
aa(lp1372
I301
aI516
aa(lp1373
I346
aI450
aa(lp1374
I133
aI171
aa(lp1375
I511
aI251
aasS'units'
p1376
S'seconds'
p1377
sS'identifier'
p1378
S'matmult2'
p1379
sS'os'
p1380
S'CYGWIN_NT-6.1-1.7.32-0.274-5-3-x86_64-64bit'
p1381
s.