(dp0
S'results'
p1
(lp2
(lp3
F4.166e-05
aa(lp4
F0.0001695
aa(lp5
F0.00030836
aa(lp6
F0.00045203
aa(lp7
F0.00057864
aa(lp8
F0.00071256
aa(lp9
F0.00085413
aa(lp10
F0.00098659
aa(lp11
F0.00111039
aa(lp12
F0.00126457
aa(lp13
F0.0013877
aa(lp14
F0.00152403
aa(lp15
F0.00164477
aa(lp16
F0.00180188
aa(lp17
F0.00194587
aa(lp18
F0.00205458
aa(lp19
F0.00220117
aa(lp20
F0.00235631
aa(lp21
F0.00246637
aa(lp22
F0.00329583
aa(lp23
F0.00072658
aa(lp24
F0.00300925
aa(lp25
F0.00472016
aa(lp26
F0.00749179
aa(lp27
F0.01120813
aa(lp28
F0.01278417
aa(lp29
F0.01431895
aa(lp30
F0.01764871
aa(lp31
F0.02004231
aa(lp32
F0.01965374
aa(lp33
F0.02487272
aa(lp34
F0.02743985
aa(lp35
F0.02806279
aa(lp36
F0.03000744
aa(lp37
F0.03254537
aa(lp38
F0.032788
aa(lp39
F0.03916676
aa(lp40
F0.03930674
aa(lp41
F0.03912806
aa(lp42
F0.04401753
aa(lp43
F0.00218977
aa(lp44
F0.00931987
aa(lp45
F0.01593796
aa(lp46
F0.02353686
aa(lp47
F0.02983851
aa(lp48
F0.03612542
aa(lp49
F0.04434448
aa(lp50
F0.04952556
aa(lp51
F0.06026787
aa(lp52
F0.06996625
aa(lp53
F0.07232656
aa(lp54
F0.07738295
aa(lp55
F0.0916887
aa(lp56
F0.08987935
aa(lp57
F0.10675825
aa(lp58
F0.11432006
aa(lp59
F0.11871009
aa(lp60
F0.12586535
aa(lp61
F0.13659354
aa(lp62
F0.13642154
aa(lp63
F0.00444447
aa(lp64
F0.01839724
aa(lp65
F0.03343286
aa(lp66
F0.04820634
aa(lp67
F0.06437926
aa(lp68
F0.07943208
aa(lp69
F0.09312061
aa(lp70
F0.10457066
aa(lp71
F0.12215035
aa(lp72
F0.13549757
aa(lp73
F0.154624
aa(lp74
F0.16684357
aa(lp75
F0.18185512
aa(lp76
F0.19827458
aa(lp77
F0.20972025
aa(lp78
F0.21089747
aa(lp79
F0.24543996
aa(lp80
F0.24647369
aa(lp81
F0.27075549
aa(lp82
F0.28358001
aa(lp83
F0.00736268
aa(lp84
F0.03461414
aa(lp85
F0.06212236
aa(lp86
F0.07907366
aa(lp87
F0.10576688
aa(lp88
F0.13099502
aa(lp89
F0.15580423
aa(lp90
F0.18026932
aa(lp91
F0.20852044
aa(lp92
F0.24201092
aa(lp93
F0.27797034
aa(lp94
F0.28960201
aa(lp95
F0.33245757
aa(lp96
F0.32829856
aa(lp97
F0.38646835
aa(lp98
F0.41356833
aa(lp99
F0.40078347
aa(lp100
F0.42517687
aa(lp101
F0.49176546
aa(lp102
F0.52212837
aa(lp103
F0.01149009
aa(lp104
F0.05238848
aa(lp105
F0.08868962
aa(lp106
F0.13037012
aa(lp107
F0.18077655
aa(lp108
F0.2211935
aa(lp109
F0.24430667
aa(lp110
F0.27951389
aa(lp111
F0.31988765
aa(lp112
F0.38953861
aa(lp113
F0.38320596
aa(lp114
F0.43058674
aa(lp115
F0.46750342
aa(lp116
F0.52494201
aa(lp117
F0.55353078
aa(lp118
F0.58954881
aa(lp119
F0.64350256
aa(lp120
F0.65440311
aa(lp121
F0.69473451
aa(lp122
F0.71482325
aa(lp123
F0.01731979
aa(lp124
F0.07366469
aa(lp125
F0.12455373
aa(lp126
F0.18670094
aa(lp127
F0.23758606
aa(lp128
F0.27911865
aa(lp129
F0.35380967
aa(lp130
F0.40502751
aa(lp131
F0.4581378
aa(lp132
F0.51305747
aa(lp133
F0.56613888
aa(lp134
F0.62667433
aa(lp135
F0.68092911
aa(lp136
F0.73482973
aa(lp137
F0.81369819
aa(lp138
F0.88237458
aa(lp139
F0.89726904
aa(lp140
F0.95315655
aa(lp141
F0.96707593
aa(lp142
F1.0581174
aa(lp143
F0.02188494
aa(lp144
F0.09436691
aa(lp145
F0.16423313
aa(lp146
F0.24687173
aa(lp147
F0.31592873
aa(lp148
F0.43525942
aa(lp149
F0.45668757
aa(lp150
F0.54421448
aa(lp151
F0.60129732
aa(lp152
F0.68474555
aa(lp153
F0.75377126
aa(lp154
F0.9030129
aa(lp155
F0.98437644
aa(lp156
F0.96187891
aa(lp157
F1.05129926
aa(lp158
F1.12566097
aa(lp159
F1.31113006
aa(lp160
F1.2267551
aa(lp161
F1.34860818
aa(lp162
F1.39820529
aa(lp163
F0.02889506
aa(lp164
F0.12273398
aa(lp165
F0.22402937
aa(lp166
F0.31383114
aa(lp167
F0.40860295
aa(lp168
F0.50191796
aa(lp169
F0.59421244
aa(lp170
F0.69847528
aa(lp171
F0.78287717
aa(lp172
F0.87061875
aa(lp173
F0.96909283
aa(lp174
F1.05727973
aa(lp175
F1.15783274
aa(lp176
F1.25955191
aa(lp177
F1.36915275
aa(lp178
F1.44867698
aa(lp179
F1.56523269
aa(lp180
F1.6317064
aa(lp181
F1.72554855
aa(lp182
F1.84401012
aa(lp183
F0.03759034
aa(lp184
F0.15401724
aa(lp185
F0.28657425
aa(lp186
F0.38881162
aa(lp187
F0.5354391
aa(lp188
F0.64795787
aa(lp189
F0.78305896
aa(lp190
F0.86569868
aa(lp191
F1.02668848
aa(lp192
F1.15617608
aa(lp193
F1.22221874
aa(lp194
F1.40277017
aa(lp195
F1.53129656
aa(lp196
F1.65525897
aa(lp197
F1.78287553
aa(lp198
F1.89877129
aa(lp199
F1.9187584
aa(lp200
F2.13106156
aa(lp201
F2.27947081
aa(lp202
F2.40387002
aa(lp203
F0.04622916
aa(lp204
F0.18880947
aa(lp205
F0.35875477
aa(lp206
F0.51425159
aa(lp207
F0.68869515
aa(lp208
F0.80097722
aa(lp209
F1.0146329
aa(lp210
F1.16821339
aa(lp211
F1.32848156
aa(lp212
F1.39030941
aa(lp213
F1.56366486
aa(lp214
F1.6611975
aa(lp215
F1.86776709
aa(lp216
F2.14173025
aa(lp217
F2.16793535
aa(lp218
F2.3303096
aa(lp219
F2.39404102
aa(lp220
F2.64285608
aa(lp221
F2.95390015
aa(lp222
F2.9405163
aa(lp223
F0.06368338
aa(lp224
F0.24108303
aa(lp225
F0.43697032
aa(lp226
F0.62885312
aa(lp227
F0.80826253
aa(lp228
F0.96809126
aa(lp229
F1.16770174
aa(lp230
F1.25174955
aa(lp231
F1.54313818
aa(lp232
F1.59713625
aa(lp233
F1.76534624
aa(lp234
F2.05316867
aa(lp235
F2.23784495
aa(lp236
F2.41751356
aa(lp237
F2.59333001
aa(lp238
F2.85982626
aa(lp239
F3.02613927
aa(lp240
F3.13286096
aa(lp241
F3.32566151
aa(lp242
F3.49886841
aa(lp243
F0.06763049
aa(lp244
F0.27421186
aa(lp245
F0.50672335
aa(lp246
F0.74373544
aa(lp247
F0.92022116
aa(lp248
F1.19084114
aa(lp249
F1.41098062
aa(lp250
F1.59738862
aa(lp251
F1.87720466
aa(lp252
F2.07046092
aa(lp253
F2.3044488
aa(lp254
F2.41732545
aa(lp255
F2.74239504
aa(lp256
F2.98336113
aa(lp257
F3.15677559
aa(lp258
F3.27128994
aa(lp259
F3.46943287
aa(lp260
F3.8035169
aa(lp261
F3.91409565
aa(lp262
F4.32884388
aa(lp263
F0.09188705
aa(lp264
F0.34911225
aa(lp265
F0.61802071
aa(lp266
F0.88835025
aa(lp267
F1.11157505
aa(lp268
F1.40282932
aa(lp269
F1.64558845
aa(lp270
F1.90986652
aa(lp271
F2.25849903
aa(lp272
F2.45781471
aa(lp273
F2.71970664
aa(lp274
F2.97176748
aa(lp275
F3.21890495
aa(lp276
F3.57952581
aa(lp277
F3.75563766
aa(lp278
F4.01026796
aa(lp279
F4.28998281
aa(lp280
F4.54930082
aa(lp281
F4.81273553
aa(lp282
F5.07973967
aa(lp283
F0.09286014
aa(lp284
F0.37826465
aa(lp285
F0.64349592
aa(lp286
F0.9226448
aa(lp287
F1.30566961
aa(lp288
F1.51107102
aa(lp289
F1.77737333
aa(lp290
F2.07470525
aa(lp291
F2.35396945
aa(lp292
F2.85074809
aa(lp293
F3.10077875
aa(lp294
F3.47777984
aa(lp295
F3.77369492
aa(lp296
F4.02600649
aa(lp297
F4.39734363
aa(lp298
F4.33211602
aa(lp299
F4.92557548
aa(lp300
F4.89902047
aa(lp301
F5.54616921
aa(lp302
F5.43181955
aa(lp303
F0.10573961
aa(lp304
F0.45233084
aa(lp305
F0.79821733
aa(lp306
F1.14748055
aa(lp307
F1.50281034
aa(lp308
F1.88887912
aa(lp309
F2.17650076
aa(lp310
F2.56018165
aa(lp311
F2.88450116
aa(lp312
F3.26630725
aa(lp313
F3.60121193
aa(lp314
F3.99631179
aa(lp315
F4.04031761
aa(lp316
F4.67983047
aa(lp317
F4.97969755
aa(lp318
F5.37090948
aa(lp319
F5.72110026
aa(lp320
F6.09762405
aa(lp321
F6.40493036
aa(lp322
F6.32866231
aa(lp323
F0.11633936
aa(lp324
F0.52355819
aa(lp325
F0.89227902
aa(lp326
F1.22550171
aa(lp327
F1.70847161
aa(lp328
F2.14361491
aa(lp329
F2.50732034
aa(lp330
F2.91558392
aa(lp331
F3.30528616
aa(lp332
F3.56961412
aa(lp333
F4.0909763
aa(lp334
F4.32232407
aa(lp335
F4.74671345
aa(lp336
F5.3176691
aa(lp337
F5.25435839
aa(lp338
F5.62656746
aa(lp339
F6.43335461
aa(lp340
F6.93438624
aa(lp341
F6.75042326
aa(lp342
F7.72309853
aa(lp343
F0.13699542
aa(lp344
F0.58197778
aa(lp345
F1.0405884
aa(lp346
F1.48059051
aa(lp347
F1.92855871
aa(lp348
F2.36166456
aa(lp349
F2.87517715
aa(lp350
F3.29477084
aa(lp351
F3.7606918
aa(lp352
F4.20874569
aa(lp353
F4.61453121
aa(lp354
F5.10866803
aa(lp355
F5.52947805
aa(lp356
F6.0273851
aa(lp357
F6.46737004
aa(lp358
F6.89161849
aa(lp359
F7.40489616
aa(lp360
F8.00112889
aa(lp361
F8.27929268
aa(lp362
F8.7551487
aa(lp363
F0.18441207
aa(lp364
F0.66004312
aa(lp365
F1.15576449
aa(lp366
F1.62173269
aa(lp367
F2.15079089
aa(lp368
F2.61614531
aa(lp369
F3.07624238
aa(lp370
F3.71116889
aa(lp371
F4.09586418
aa(lp372
F4.74686417
aa(lp373
F5.27223289
aa(lp374
F5.49521526
aa(lp375
F6.05593208
aa(lp376
F6.89205197
aa(lp377
F7.02178783
aa(lp378
F7.86081352
aa(lp379
F8.02737991
aa(lp380
F8.83003445
aa(lp381
F9.36954949
aa(lp382
F9.48540783
aa(lp383
F0.17114768
aa(lp384
F0.72990228
aa(lp385
F1.28902346
aa(lp386
F1.86667829
aa(lp387
F2.2248002
aa(lp388
F3.0090232
aa(lp389
F3.58490926
aa(lp390
F4.16783291
aa(lp391
F4.72635953
aa(lp392
F4.77222386
aa(lp393
F5.32779602
aa(lp394
F6.40202198
aa(lp395
F6.95259638
aa(lp396
F7.58076576
aa(lp397
F8.11944811
aa(lp398
F8.47867564
aa(lp399
F9.22831625
aa(lp400
F9.76901876
aa(lp401
F10.44141444
aa(lp402
F10.96166536
aasS'month'
p403
I10
sS'argument tags'
p404
(lp405
S'M'
p406
aS'N'
p407
asS'year'
p408
I2014
sS'arch'
p409
S'x86_64'
p410
sS'day'
p411
I18
sS'result tags'
p412
(lp413
S'Run Time'
p414
asS'arguments'
p415
(lp416
(lp417
cnumpy.core.multiarray
scalar
p418
(cnumpy
dtype
p419
(S'i4'
p420
I0
I1
tp421
Rp422
(I3
S'<'
p423
NNNI-1
I-1
I0
tp424
bS'\x08\x00\x00\x00'
p425
tp426
Rp427
ag418
(g422
S'\x08\x00\x00\x00'
p428
tp429
Rp430
aa(lp431
g418
(g422
S'!\x00\x00\x00'
p432
tp433
Rp434
ag418
(g422
S'\x08\x00\x00\x00'
p435
tp436
Rp437
aa(lp438
g418
(g422
S'<\x00\x00\x00'
p439
tp440
Rp441
ag418
(g422
S'\x08\x00\x00\x00'
p442
tp443
Rp444
aa(lp445
g418
(g422
S'X\x00\x00\x00'
p446
tp447
Rp448
ag418
(g422
S'\x08\x00\x00\x00'
p449
tp450
Rp451
aa(lp452
g418
(g422
S'r\x00\x00\x00'
p453
tp454
Rp455
ag418
(g422
S'\x08\x00\x00\x00'
p456
tp457
Rp458
aa(lp459
g418
(g422
S'\x8c\x00\x00\x00'
p460
tp461
Rp462
ag418
(g422
S'\x08\x00\x00\x00'
p463
tp464
Rp465
aa(lp466
g418
(g422
S'\xa8\x00\x00\x00'
p467
tp468
Rp469
ag418
(g422
S'\x08\x00\x00\x00'
p470
tp471
Rp472
aa(lp473
g418
(g422
S'\xc1\x00\x00\x00'
p474
tp475
Rp476
ag418
(g422
S'\x08\x00\x00\x00'
p477
tp478
Rp479
aa(lp480
g418
(g422
S'\xdb\x00\x00\x00'
p481
tp482
Rp483
ag418
(g422
S'\x08\x00\x00\x00'
p484
tp485
Rp486
aa(lp487
g418
(g422
S'\xf8\x00\x00\x00'
p488
tp489
Rp490
ag418
(g422
S'\x08\x00\x00\x00'
p491
tp492
Rp493
aa(lp494
g418
(g422
S'\x10\x01\x00\x00'
p495
tp496
Rp497
ag418
(g422
S'\x08\x00\x00\x00'
p498
tp499
Rp500
aa(lp501
g418
(g422
S'+\x01\x00\x00'
p502
tp503
Rp504
ag418
(g422
S'\x08\x00\x00\x00'
p505
tp506
Rp507
aa(lp508
g418
(g422
S'E\x01\x00\x00'
p509
tp510
Rp511
ag418
(g422
S'\x08\x00\x00\x00'
p512
tp513
Rp514
aa(lp515
g418
(g422
S'b\x01\x00\x00'
p516
tp517
Rp518
ag418
(g422
S'\x08\x00\x00\x00'
p519
tp520
Rp521
aa(lp522
g418
(g422
S'{\x01\x00\x00'
p523
tp524
Rp525
ag418
(g422
S'\x08\x00\x00\x00'
p526
tp527
Rp528
aa(lp529
g418
(g422
S'\x96\x01\x00\x00'
p530
tp531
Rp532
ag418
(g422
S'\x08\x00\x00\x00'
p533
tp534
Rp535
aa(lp536
g418
(g422
S'\xb1\x01\x00\x00'
p537
tp538
Rp539
ag418
(g422
S'\x08\x00\x00\x00'
p540
tp541
Rp542
aa(lp543
g418
(g422
S'\xcb\x01\x00\x00'
p544
tp545
Rp546
ag418
(g422
S'\x08\x00\x00\x00'
p547
tp548
Rp549
aa(lp550
g418
(g422
S'\xe6\x01\x00\x00'
p551
tp552
Rp553
ag418
(g422
S'\x08\x00\x00\x00'
p554
tp555
Rp556
aa(lp557
g418
(g422
S'\x00\x02\x00\x00'
p558
tp559
Rp560
ag418
(g422
S'\t\x00\x00\x00'
p561
tp562
Rp563
aa(lp564
g418
(g422
S'\x08\x00\x00\x00'
p565
tp566
Rp567
ag418
(g422
S'#\x00\x00\x00'
p568
tp569
Rp570
aa(lp571
g418
(g422
S'#\x00\x00\x00'
p572
tp573
Rp574
ag418
(g422
S'"\x00\x00\x00'
p575
tp576
Rp577
aa(lp578
g418
(g422
S'>\x00\x00\x00'
p579
tp580
Rp581
ag418
(g422
S' \x00\x00\x00'
p582
tp583
Rp584
aa(lp585
g418
(g422
S'W\x00\x00\x00'
p586
tp587
Rp588
ag418
(g422
S'"\x00\x00\x00'
p589
tp590
Rp591
aa(lp592
g418
(g422
S't\x00\x00\x00'
p593
tp594
Rp595
ag418
(g422
S'$\x00\x00\x00'
p596
tp597
Rp598
aa(lp599
g418
(g422
S'\x8c\x00\x00\x00'
p600
tp601
Rp602
ag418
(g422
S'#\x00\x00\x00'
p603
tp604
Rp605
aa(lp606
g418
(g422
S'\xa6\x00\x00\x00'
p607
tp608
Rp609
ag418
(g422
S'"\x00\x00\x00'
p610
tp611
Rp612
aa(lp613
g418
(g422
S'\xc1\x00\x00\x00'
p614
tp615
Rp616
ag418
(g422
S'#\x00\x00\x00'
p617
tp618
Rp619
aa(lp620
g418
(g422
S'\xdc\x00\x00\x00'
p621
tp622
Rp623
ag418
(g422
S'#\x00\x00\x00'
p624
tp625
Rp626
aa(lp627
g418
(g422
S'\xf5\x00\x00\x00'
p628
tp629
Rp630
ag418
(g422
S'!\x00\x00\x00'
p631
tp632
Rp633
aa(lp634
g418
(g422
S'\x10\x01\x00\x00'
p635
tp636
Rp637
ag418
(g422
S'#\x00\x00\x00'
p638
tp639
Rp640
aa(lp641
g418
(g422
S'-\x01\x00\x00'
p642
tp643
Rp644
ag418
(g422
S'#\x00\x00\x00'
p645
tp646
Rp647
aa(lp648
g418
(g422
S'F\x01\x00\x00'
p649
tp650
Rp651
ag418
(g422
S'"\x00\x00\x00'
p652
tp653
Rp654
aa(lp655
g418
(g422
S'`\x01\x00\x00'
p656
tp657
Rp658
ag418
(g422
S'"\x00\x00\x00'
p659
tp660
Rp661
aa(lp662
g418
(g422
S'z\x01\x00\x00'
p663
tp664
Rp665
ag418
(g422
S'"\x00\x00\x00'
p666
tp667
Rp668
aa(lp669
g418
(g422
S'\x94\x01\x00\x00'
p670
tp671
Rp672
ag418
(g422
S'!\x00\x00\x00'
p673
tp674
Rp675
aa(lp676
g418
(g422
S'\xb1\x01\x00\x00'
p677
tp678
Rp679
ag418
(g422
S'#\x00\x00\x00'
p680
tp681
Rp682
aa(lp683
g418
(g422
S'\xca\x01\x00\x00'
p684
tp685
Rp686
ag418
(g422
S'"\x00\x00\x00'
p687
tp688
Rp689
aa(lp690
g418
(g422
S'\xe7\x01\x00\x00'
p691
tp692
Rp693
ag418
(g422
S'!\x00\x00\x00'
p694
tp695
Rp696
aa(lp697
g418
(g422
S'\xff\x01\x00\x00'
p698
tp699
Rp700
ag418
(g422
S'"\x00\x00\x00'
p701
tp702
Rp703
aa(lp704
g418
(g422
S'\x08\x00\x00\x00'
p705
tp706
Rp707
ag418
(g422
S'=\x00\x00\x00'
p708
tp709
Rp710
aa(lp711
g418
(g422
S'"\x00\x00\x00'
p712
tp713
Rp714
ag418
(g422
S'=\x00\x00\x00'
p715
tp716
Rp717
aa(lp718
g418
(g422
S'<\x00\x00\x00'
p719
tp720
Rp721
ag418
(g422
S'<\x00\x00\x00'
p722
tp723
Rp724
aa(lp725
g418
(g422
S'V\x00\x00\x00'
p726
tp727
Rp728
ag418
(g422
S'=\x00\x00\x00'
p729
tp730
Rp731
aa(lp732
g418
(g422
S'q\x00\x00\x00'
p733
tp734
Rp735
ag418
(g422
S'<\x00\x00\x00'
p736
tp737
Rp738
aa(lp739
g418
(g422
S'\x8d\x00\x00\x00'
p740
tp741
Rp742
ag418
(g422
S';\x00\x00\x00'
p743
tp744
Rp745
aa(lp746
g418
(g422
S'\xa8\x00\x00\x00'
p747
tp748
Rp749
ag418
(g422
S'<\x00\x00\x00'
p750
tp751
Rp752
aa(lp753
g418
(g422
S'\xc1\x00\x00\x00'
p754
tp755
Rp756
ag418
(g422
S';\x00\x00\x00'
p757
tp758
Rp759
aa(lp760
g418
(g422
S'\xdc\x00\x00\x00'
p761
tp762
Rp763
ag418
(g422
S'=\x00\x00\x00'
p764
tp765
Rp766
aa(lp767
g418
(g422
S'\xf6\x00\x00\x00'
p768
tp769
Rp770
ag418
(g422
S'>\x00\x00\x00'
p771
tp772
Rp773
aa(lp774
g418
(g422
S'\x10\x01\x00\x00'
p775
tp776
Rp777
ag418
(g422
S'<\x00\x00\x00'
p778
tp779
Rp780
aa(lp781
g418
(g422
S'-\x01\x00\x00'
p782
tp783
Rp784
ag418
(g422
S';\x00\x00\x00'
p785
tp786
Rp787
aa(lp788
g418
(g422
S'E\x01\x00\x00'
p789
tp790
Rp791
ag418
(g422
S'>\x00\x00\x00'
p792
tp793
Rp794
aa(lp795
g418
(g422
S'a\x01\x00\x00'
p796
tp797
Rp798
ag418
(g422
S';\x00\x00\x00'
p799
tp800
Rp801
aa(lp802
g418
(g422
S'z\x01\x00\x00'
p803
tp804
Rp805
ag418
(g422
S'>\x00\x00\x00'
p806
tp807
Rp808
aa(lp809
g418
(g422
S'\x96\x01\x00\x00'
p810
tp811
Rp812
ag418
(g422
S'>\x00\x00\x00'
p813
tp814
Rp815
aa(lp816
g418
(g422
S'\xb2\x01\x00\x00'
p817
tp818
Rp819
ag418
(g422
S'=\x00\x00\x00'
p820
tp821
Rp822
aa(lp823
g418
(g422
S'\xca\x01\x00\x00'
p824
tp825
Rp826
ag418
(g422
S'=\x00\x00\x00'
p827
tp828
Rp829
aa(lp830
g418
(g422
S'\xe4\x01\x00\x00'
p831
tp832
Rp833
ag418
(g422
S'>\x00\x00\x00'
p834
tp835
Rp836
aa(lp837
g418
(g422
S'\x00\x02\x00\x00'
p838
tp839
Rp840
ag418
(g422
S'<\x00\x00\x00'
p841
tp842
Rp843
aa(lp844
g418
(g422
S'\x08\x00\x00\x00'
p845
tp846
Rp847
ag418
(g422
S'W\x00\x00\x00'
p848
tp849
Rp850
aa(lp851
g418
(g422
S'!\x00\x00\x00'
p852
tp853
Rp854
ag418
(g422
S'W\x00\x00\x00'
p855
tp856
Rp857
aa(lp858
g418
(g422
S'<\x00\x00\x00'
p859
tp860
Rp861
ag418
(g422
S'W\x00\x00\x00'
p862
tp863
Rp864
aa(lp865
g418
(g422
S'V\x00\x00\x00'
p866
tp867
Rp868
ag418
(g422
S'W\x00\x00\x00'
p869
tp870
Rp871
aa(lp872
g418
(g422
S'q\x00\x00\x00'
p873
tp874
Rp875
ag418
(g422
S'X\x00\x00\x00'
p876
tp877
Rp878
aa(lp879
g418
(g422
S'\x8c\x00\x00\x00'
p880
tp881
Rp882
ag418
(g422
S'X\x00\x00\x00'
p883
tp884
Rp885
aa(lp886
g418
(g422
S'\xa7\x00\x00\x00'
p887
tp888
Rp889
ag418
(g422
S'W\x00\x00\x00'
p890
tp891
Rp892
aa(lp893
g418
(g422
S'\xc1\x00\x00\x00'
p894
tp895
Rp896
ag418
(g422
S'V\x00\x00\x00'
p897
tp898
Rp899
aa(lp900
g418
(g422
S'\xda\x00\x00\x00'
p901
tp902
Rp903
ag418
(g422
S'W\x00\x00\x00'
p904
tp905
Rp906
aa(lp907
g418
(g422
S'\xf4\x00\x00\x00'
p908
tp909
Rp910
ag418
(g422
S'W\x00\x00\x00'
p911
tp912
Rp913
aa(lp914
g418
(g422
S'\x10\x01\x00\x00'
p915
tp916
Rp917
ag418
(g422
S'X\x00\x00\x00'
p918
tp919
Rp920
aa(lp921
g418
(g422
S'-\x01\x00\x00'
p922
tp923
Rp924
ag418
(g422
S'W\x00\x00\x00'
p925
tp926
Rp927
aa(lp928
g418
(g422
S'F\x01\x00\x00'
p929
tp930
Rp931
ag418
(g422
S'W\x00\x00\x00'
p932
tp933
Rp934
aa(lp935
g418
(g422
S'_\x01\x00\x00'
p936
tp937
Rp938
ag418
(g422
S'X\x00\x00\x00'
p939
tp940
Rp941
aa(lp942
g418
(g422
S'z\x01\x00\x00'
p943
tp944
Rp945
ag418
(g422
S'W\x00\x00\x00'
p946
tp947
Rp948
aa(lp949
g418
(g422
S'\x97\x01\x00\x00'
p950
tp951
Rp952
ag418
(g422
S'T\x00\x00\x00'
p953
tp954
Rp955
aa(lp956
g418
(g422
S'\xb0\x01\x00\x00'
p957
tp958
Rp959
ag418
(g422
S'X\x00\x00\x00'
p960
tp961
Rp962
aa(lp963
g418
(g422
S'\xc9\x01\x00\x00'
p964
tp965
Rp966
ag418
(g422
S'V\x00\x00\x00'
p967
tp968
Rp969
aa(lp970
g418
(g422
S'\xe7\x01\x00\x00'
p971
tp972
Rp973
ag418
(g422
S'W\x00\x00\x00'
p974
tp975
Rp976
aa(lp977
g418
(g422
S'\x00\x02\x00\x00'
p978
tp979
Rp980
ag418
(g422
S'W\x00\x00\x00'
p981
tp982
Rp983
aa(lp984
g418
(g422
S'\x08\x00\x00\x00'
p985
tp986
Rp987
ag418
(g422
S'p\x00\x00\x00'
p988
tp989
Rp990
aa(lp991
g418
(g422
S'"\x00\x00\x00'
p992
tp993
Rp994
ag418
(g422
S'r\x00\x00\x00'
p995
tp996
Rp997
aa(lp998
g418
(g422
S'=\x00\x00\x00'
p999
tp1000
Rp1001
ag418
(g422
S'r\x00\x00\x00'
p1002
tp1003
Rp1004
aa(lp1005
g418
(g422
S'V\x00\x00\x00'
p1006
tp1007
Rp1008
ag418
(g422
S'p\x00\x00\x00'
p1009
tp1010
Rp1011
aa(lp1012
g418
(g422
S'q\x00\x00\x00'
p1013
tp1014
Rp1015
ag418
(g422
S'q\x00\x00\x00'
p1016
tp1017
Rp1018
aa(lp1019
g418
(g422
S'\x8c\x00\x00\x00'
p1020
tp1021
Rp1022
ag418
(g422
S'q\x00\x00\x00'
p1023
tp1024
Rp1025
aa(lp1026
g418
(g422
S'\xa7\x00\x00\x00'
p1027
tp1028
Rp1029
ag418
(g422
S'q\x00\x00\x00'
p1030
tp1031
Rp1032
aa(lp1033
g418
(g422
S'\xc3\x00\x00\x00'
p1034
tp1035
Rp1036
ag418
(g422
S'p\x00\x00\x00'
p1037
tp1038
Rp1039
aa(lp1040
g418
(g422
S'\xdd\x00\x00\x00'
p1041
tp1042
Rp1043
ag418
(g422
S'o\x00\x00\x00'
p1044
tp1045
Rp1046
aa(lp1047
g418
(g422
S'\xf6\x00\x00\x00'
p1048
tp1049
Rp1050
ag418
(g422
S't\x00\x00\x00'
p1051
tp1052
Rp1053
aa(lp1054
g418
(g422
S'\x10\x01\x00\x00'
p1055
tp1056
Rp1057
ag418
(g422
S'r\x00\x00\x00'
p1058
tp1059
Rp1060
aa(lp1061
g418
(g422
S'-\x01\x00\x00'
p1062
tp1063
Rp1064
ag418
(g422
S's\x00\x00\x00'
p1065
tp1066
Rp1067
aa(lp1068
g418
(g422
S'F\x01\x00\x00'
p1069
tp1070
Rp1071
ag418
(g422
S'r\x00\x00\x00'
p1072
tp1073
Rp1074
aa(lp1075
g418
(g422
S'`\x01\x00\x00'
p1076
tp1077
Rp1078
ag418
(g422
S'q\x00\x00\x00'
p1079
tp1080
Rp1081
aa(lp1082
g418
(g422
S'{\x01\x00\x00'
p1083
tp1084
Rp1085
ag418
(g422
S'r\x00\x00\x00'
p1086
tp1087
Rp1088
aa(lp1089
g418
(g422
S'\x95\x01\x00\x00'
p1090
tp1091
Rp1092
ag418
(g422
S'r\x00\x00\x00'
p1093
tp1094
Rp1095
aa(lp1096
g418
(g422
S'\xaf\x01\x00\x00'
p1097
tp1098
Rp1099
ag418
(g422
S'q\x00\x00\x00'
p1100
tp1101
Rp1102
aa(lp1103
g418
(g422
S'\xc9\x01\x00\x00'
p1104
tp1105
Rp1106
ag418
(g422
S'q\x00\x00\x00'
p1107
tp1108
Rp1109
aa(lp1110
g418
(g422
S'\xe4\x01\x00\x00'
p1111
tp1112
Rp1113
ag418
(g422
S'r\x00\x00\x00'
p1114
tp1115
Rp1116
aa(lp1117
g418
(g422
S'\x00\x02\x00\x00'
p1118
tp1119
Rp1120
ag418
(g422
S'r\x00\x00\x00'
p1121
tp1122
Rp1123
aa(lp1124
g418
(g422
S'\x08\x00\x00\x00'
p1125
tp1126
Rp1127
ag418
(g422
S'\x8c\x00\x00\x00'
p1128
tp1129
Rp1130
aa(lp1131
g418
(g422
S'!\x00\x00\x00'
p1132
tp1133
Rp1134
ag418
(g422
S'\x8d\x00\x00\x00'
p1135
tp1136
Rp1137
aa(lp1138
g418
(g422
S'=\x00\x00\x00'
p1139
tp1140
Rp1141
ag418
(g422
S'\x8b\x00\x00\x00'
p1142
tp1143
Rp1144
aa(lp1145
g418
(g422
S'W\x00\x00\x00'
p1146
tp1147
Rp1148
ag418
(g422
S'\x8f\x00\x00\x00'
p1149
tp1150
Rp1151
aa(lp1152
g418
(g422
S'r\x00\x00\x00'
p1153
tp1154
Rp1155
ag418
(g422
S'\x8d\x00\x00\x00'
p1156
tp1157
Rp1158
aa(lp1159
g418
(g422
S'\x8b\x00\x00\x00'
p1160
tp1161
Rp1162
ag418
(g422
S'\x8d\x00\x00\x00'
p1163
tp1164
Rp1165
aa(lp1166
g418
(g422
S'\xa7\x00\x00\x00'
p1167
tp1168
Rp1169
ag418
(g422
S'\x8b\x00\x00\x00'
p1170
tp1171
Rp1172
aa(lp1173
g418
(g422
S'\xc0\x00\x00\x00'
p1174
tp1175
Rp1176
ag418
(g422
S'\x8b\x00\x00\x00'
p1177
tp1178
Rp1179
aa(lp1180
g418
(g422
S'\xdc\x00\x00\x00'
p1181
tp1182
Rp1183
ag418
(g422
S'\x8b\x00\x00\x00'
p1184
tp1185
Rp1186
aa(lp1187
g418
(g422
S'\xf7\x00\x00\x00'
p1188
tp1189
Rp1190
ag418
(g422
S'\x8d\x00\x00\x00'
p1191
tp1192
Rp1193
aa(lp1194
g418
(g422
S'\x11\x01\x00\x00'
p1195
tp1196
Rp1197
ag418
(g422
S'\x8a\x00\x00\x00'
p1198
tp1199
Rp1200
aa(lp1201
g418
(g422
S',\x01\x00\x00'
p1202
tp1203
Rp1204
ag418
(g422
S'\x8c\x00\x00\x00'
p1205
tp1206
Rp1207
aa(lp1208
g418
(g422
S'D\x01\x00\x00'
p1209
tp1210
Rp1211
ag418
(g422
S'\x8c\x00\x00\x00'
p1212
tp1213
Rp1214
aa(lp1215
g418
(g422
S'a\x01\x00\x00'
p1216
tp1217
Rp1218
ag418
(g422
S'\x8e\x00\x00\x00'
p1219
tp1220
Rp1221
aa(lp1222
g418
(g422
S'z\x01\x00\x00'
p1223
tp1224
Rp1225
ag418
(g422
S'\x8b\x00\x00\x00'
p1226
tp1227
Rp1228
aa(lp1229
g418
(g422
S'\x97\x01\x00\x00'
p1230
tp1231
Rp1232
ag418
(g422
S'\x8c\x00\x00\x00'
p1233
tp1234
Rp1235
aa(lp1236
g418
(g422
S'\xb0\x01\x00\x00'
p1237
tp1238
Rp1239
ag418
(g422
S'\x8e\x00\x00\x00'
p1240
tp1241
Rp1242
aa(lp1243
g418
(g422
S'\xca\x01\x00\x00'
p1244
tp1245
Rp1246
ag418
(g422
S'\x8c\x00\x00\x00'
p1247
tp1248
Rp1249
aa(lp1250
g418
(g422
S'\xe4\x01\x00\x00'
p1251
tp1252
Rp1253
ag418
(g422
S'\x8c\x00\x00\x00'
p1254
tp1255
Rp1256
aa(lp1257
g418
(g422
S'\xff\x01\x00\x00'
p1258
tp1259
Rp1260
ag418
(g422
S'\x8a\x00\x00\x00'
p1261
tp1262
Rp1263
aa(lp1264
g418
(g422
S'\x08\x00\x00\x00'
p1265
tp1266
Rp1267
ag418
(g422
S'\xa7\x00\x00\x00'
p1268
tp1269
Rp1270
aa(lp1271
g418
(g422
S'"\x00\x00\x00'
p1272
tp1273
Rp1274
ag418
(g422
S'\xa7\x00\x00\x00'
p1275
tp1276
Rp1277
aa(lp1278
g418
(g422
S'>\x00\x00\x00'
p1279
tp1280
Rp1281
ag418
(g422
S'\xa5\x00\x00\x00'
p1282
tp1283
Rp1284
aa(lp1285
g418
(g422
S'V\x00\x00\x00'
p1286
tp1287
Rp1288
ag418
(g422
S'\xa7\x00\x00\x00'
p1289
tp1290
Rp1291
aa(lp1292
g418
(g422
S'r\x00\x00\x00'
p1293
tp1294
Rp1295
ag418
(g422
S'\xa6\x00\x00\x00'
p1296
tp1297
Rp1298
aa(lp1299
g418
(g422
S'\x8b\x00\x00\x00'
p1300
tp1301
Rp1302
ag418
(g422
S'\xa5\x00\x00\x00'
p1303
tp1304
Rp1305
aa(lp1306
g418
(g422
S'\xa9\x00\x00\x00'
p1307
tp1308
Rp1309
ag418
(g422
S'\xa6\x00\x00\x00'
p1310
tp1311
Rp1312
aa(lp1313
g418
(g422
S'\xc2\x00\x00\x00'
p1314
tp1315
Rp1316
ag418
(g422
S'\xa6\x00\x00\x00'
p1317
tp1318
Rp1319
aa(lp1320
g418
(g422
S'\xdc\x00\x00\x00'
p1321
tp1322
Rp1323
ag418
(g422
S'\xa6\x00\x00\x00'
p1324
tp1325
Rp1326
aa(lp1327
g418
(g422
S'\xf7\x00\x00\x00'
p1328
tp1329
Rp1330
ag418
(g422
S'\xa6\x00\x00\x00'
p1331
tp1332
Rp1333
aa(lp1334
g418
(g422
S'\x10\x01\x00\x00'
p1335
tp1336
Rp1337
ag418
(g422
S'\xa6\x00\x00\x00'
p1338
tp1339
Rp1340
aa(lp1341
g418
(g422
S'+\x01\x00\x00'
p1342
tp1343
Rp1344
ag418
(g422
S'\xa6\x00\x00\x00'
p1345
tp1346
Rp1347
aa(lp1348
g418
(g422
S'F\x01\x00\x00'
p1349
tp1350
Rp1351
ag418
(g422
S'\xa6\x00\x00\x00'
p1352
tp1353
Rp1354
aa(lp1355
g418
(g422
S'a\x01\x00\x00'
p1356
tp1357
Rp1358
ag418
(g422
S'\xa6\x00\x00\x00'
p1359
tp1360
Rp1361
aa(lp1362
g418
(g422
S'y\x01\x00\x00'
p1363
tp1364
Rp1365
ag418
(g422
S'\xa7\x00\x00\x00'
p1366
tp1367
Rp1368
aa(lp1369
g418
(g422
S'\x97\x01\x00\x00'
p1370
tp1371
Rp1372
ag418
(g422
S'\xa7\x00\x00\x00'
p1373
tp1374
Rp1375
aa(lp1376
g418
(g422
S'\xae\x01\x00\x00'
p1377
tp1378
Rp1379
ag418
(g422
S'\xa6\x00\x00\x00'
p1380
tp1381
Rp1382
aa(lp1383
g418
(g422
S'\xcb\x01\x00\x00'
p1384
tp1385
Rp1386
ag418
(g422
S'\xa6\x00\x00\x00'
p1387
tp1388
Rp1389
aa(lp1390
g418
(g422
S'\xe4\x01\x00\x00'
p1391
tp1392
Rp1393
ag418
(g422
S'\xa5\x00\x00\x00'
p1394
tp1395
Rp1396
aa(lp1397
g418
(g422
S'\xfd\x01\x00\x00'
p1398
tp1399
Rp1400
ag418
(g422
S'\xa6\x00\x00\x00'
p1401
tp1402
Rp1403
aa(lp1404
g418
(g422
S'\x08\x00\x00\x00'
p1405
tp1406
Rp1407
ag418
(g422
S'\xc1\x00\x00\x00'
p1408
tp1409
Rp1410
aa(lp1411
g418
(g422
S'"\x00\x00\x00'
p1412
tp1413
Rp1414
ag418
(g422
S'\xc2\x00\x00\x00'
p1415
tp1416
Rp1417
aa(lp1418
g418
(g422
S'<\x00\x00\x00'
p1419
tp1420
Rp1421
ag418
(g422
S'\xc1\x00\x00\x00'
p1422
tp1423
Rp1424
aa(lp1425
g418
(g422
S'Y\x00\x00\x00'
p1426
tp1427
Rp1428
ag418
(g422
S'\xc2\x00\x00\x00'
p1429
tp1430
Rp1431
aa(lp1432
g418
(g422
S'r\x00\x00\x00'
p1433
tp1434
Rp1435
ag418
(g422
S'\xc2\x00\x00\x00'
p1436
tp1437
Rp1438
aa(lp1439
g418
(g422
S'\x8c\x00\x00\x00'
p1440
tp1441
Rp1442
ag418
(g422
S'\xc3\x00\x00\x00'
p1443
tp1444
Rp1445
aa(lp1446
g418
(g422
S'\xa7\x00\x00\x00'
p1447
tp1448
Rp1449
ag418
(g422
S'\xc1\x00\x00\x00'
p1450
tp1451
Rp1452
aa(lp1453
g418
(g422
S'\xc1\x00\x00\x00'
p1454
tp1455
Rp1456
ag418
(g422
S'\xc4\x00\x00\x00'
p1457
tp1458
Rp1459
aa(lp1460
g418
(g422
S'\xdc\x00\x00\x00'
p1461
tp1462
Rp1463
ag418
(g422
S'\xc1\x00\x00\x00'
p1464
tp1465
Rp1466
aa(lp1467
g418
(g422
S'\xf6\x00\x00\x00'
p1468
tp1469
Rp1470
ag418
(g422
S'\xc2\x00\x00\x00'
p1471
tp1472
Rp1473
aa(lp1474
g418
(g422
S'\x0f\x01\x00\x00'
p1475
tp1476
Rp1477
ag418
(g422
S'\xc2\x00\x00\x00'
p1478
tp1479
Rp1480
aa(lp1481
g418
(g422
S'+\x01\x00\x00'
p1482
tp1483
Rp1484
ag418
(g422
S'\xc0\x00\x00\x00'
p1485
tp1486
Rp1487
aa(lp1488
g418
(g422
S'E\x01\x00\x00'
p1489
tp1490
Rp1491
ag418
(g422
S'\xc0\x00\x00\x00'
p1492
tp1493
Rp1494
aa(lp1495
g418
(g422
S'`\x01\x00\x00'
p1496
tp1497
Rp1498
ag418
(g422
S'\xc1\x00\x00\x00'
p1499
tp1500
Rp1501
aa(lp1502
g418
(g422
S'{\x01\x00\x00'
p1503
tp1504
Rp1505
ag418
(g422
S'\xc2\x00\x00\x00'
p1506
tp1507
Rp1508
aa(lp1509
g418
(g422
S'\x96\x01\x00\x00'
p1510
tp1511
Rp1512
ag418
(g422
S'\xc2\x00\x00\x00'
p1513
tp1514
Rp1515
aa(lp1516
g418
(g422
S'\xb1\x01\x00\x00'
p1517
tp1518
Rp1519
ag418
(g422
S'\xc0\x00\x00\x00'
p1520
tp1521
Rp1522
aa(lp1523
g418
(g422
S'\xca\x01\x00\x00'
p1524
tp1525
Rp1526
ag418
(g422
S'\xbf\x00\x00\x00'
p1527
tp1528
Rp1529
aa(lp1530
g418
(g422
S'\xe6\x01\x00\x00'
p1531
tp1532
Rp1533
ag418
(g422
S'\xc2\x00\x00\x00'
p1534
tp1535
Rp1536
aa(lp1537
g418
(g422
S'\xff\x01\x00\x00'
p1538
tp1539
Rp1540
ag418
(g422
S'\xc1\x00\x00\x00'
p1541
tp1542
Rp1543
aa(lp1544
g418
(g422
S'\x08\x00\x00\x00'
p1545
tp1546
Rp1547
ag418
(g422
S'\xdd\x00\x00\x00'
p1548
tp1549
Rp1550
aa(lp1551
g418
(g422
S'"\x00\x00\x00'
p1552
tp1553
Rp1554
ag418
(g422
S'\xdb\x00\x00\x00'
p1555
tp1556
Rp1557
aa(lp1558
g418
(g422
S'>\x00\x00\x00'
p1559
tp1560
Rp1561
ag418
(g422
S'\xdd\x00\x00\x00'
p1562
tp1563
Rp1564
aa(lp1565
g418
(g422
S'W\x00\x00\x00'
p1566
tp1567
Rp1568
ag418
(g422
S'\xdb\x00\x00\x00'
p1569
tp1570
Rp1571
aa(lp1572
g418
(g422
S's\x00\x00\x00'
p1573
tp1574
Rp1575
ag418
(g422
S'\xdc\x00\x00\x00'
p1576
tp1577
Rp1578
aa(lp1579
g418
(g422
S'\x8d\x00\x00\x00'
p1580
tp1581
Rp1582
ag418
(g422
S'\xdc\x00\x00\x00'
p1583
tp1584
Rp1585
aa(lp1586
g418
(g422
S'\xa5\x00\x00\x00'
p1587
tp1588
Rp1589
ag418
(g422
S'\xdb\x00\x00\x00'
p1590
tp1591
Rp1592
aa(lp1593
g418
(g422
S'\xc2\x00\x00\x00'
p1594
tp1595
Rp1596
ag418
(g422
S'\xdd\x00\x00\x00'
p1597
tp1598
Rp1599
aa(lp1600
g418
(g422
S'\xdc\x00\x00\x00'
p1601
tp1602
Rp1603
ag418
(g422
S'\xdc\x00\x00\x00'
p1604
tp1605
Rp1606
aa(lp1607
g418
(g422
S'\xf5\x00\x00\x00'
p1608
tp1609
Rp1610
ag418
(g422
S'\xdc\x00\x00\x00'
p1611
tp1612
Rp1613
aa(lp1614
g418
(g422
S'\x11\x01\x00\x00'
p1615
tp1616
Rp1617
ag418
(g422
S'\xdc\x00\x00\x00'
p1618
tp1619
Rp1620
aa(lp1621
g418
(g422
S'*\x01\x00\x00'
p1622
tp1623
Rp1624
ag418
(g422
S'\xdc\x00\x00\x00'
p1625
tp1626
Rp1627
aa(lp1628
g418
(g422
S'E\x01\x00\x00'
p1629
tp1630
Rp1631
ag418
(g422
S'\xdc\x00\x00\x00'
p1632
tp1633
Rp1634
aa(lp1635
g418
(g422
S'b\x01\x00\x00'
p1636
tp1637
Rp1638
ag418
(g422
S'\xdc\x00\x00\x00'
p1639
tp1640
Rp1641
aa(lp1642
g418
(g422
S'{\x01\x00\x00'
p1643
tp1644
Rp1645
ag418
(g422
S'\xdb\x00\x00\x00'
p1646
tp1647
Rp1648
aa(lp1649
g418
(g422
S'\x94\x01\x00\x00'
p1650
tp1651
Rp1652
ag418
(g422
S'\xdb\x00\x00\x00'
p1653
tp1654
Rp1655
aa(lp1656
g418
(g422
S'\xb0\x01\x00\x00'
p1657
tp1658
Rp1659
ag418
(g422
S'\xdd\x00\x00\x00'
p1660
tp1661
Rp1662
aa(lp1663
g418
(g422
S'\xca\x01\x00\x00'
p1664
tp1665
Rp1666
ag418
(g422
S'\xdc\x00\x00\x00'
p1667
tp1668
Rp1669
aa(lp1670
g418
(g422
S'\xe5\x01\x00\x00'
p1671
tp1672
Rp1673
ag418
(g422
S'\xdc\x00\x00\x00'
p1674
tp1675
Rp1676
aa(lp1677
g418
(g422
S'\x00\x02\x00\x00'
p1678
tp1679
Rp1680
ag418
(g422
S'\xdb\x00\x00\x00'
p1681
tp1682
Rp1683
aa(lp1684
g418
(g422
S'\x08\x00\x00\x00'
p1685
tp1686
Rp1687
ag418
(g422
S'\xf6\x00\x00\x00'
p1688
tp1689
Rp1690
aa(lp1691
g418
(g422
S'!\x00\x00\x00'
p1692
tp1693
Rp1694
ag418
(g422
S'\xf8\x00\x00\x00'
p1695
tp1696
Rp1697
aa(lp1698
g418
(g422
S'=\x00\x00\x00'
p1699
tp1700
Rp1701
ag418
(g422
S'\xf6\x00\x00\x00'
p1702
tp1703
Rp1704
aa(lp1705
g418
(g422
S'W\x00\x00\x00'
p1706
tp1707
Rp1708
ag418
(g422
S'\xf5\x00\x00\x00'
p1709
tp1710
Rp1711
aa(lp1712
g418
(g422
S'r\x00\x00\x00'
p1713
tp1714
Rp1715
ag418
(g422
S'\xf7\x00\x00\x00'
p1716
tp1717
Rp1718
aa(lp1719
g418
(g422
S'\x8b\x00\x00\x00'
p1720
tp1721
Rp1722
ag418
(g422
S'\xf8\x00\x00\x00'
p1723
tp1724
Rp1725
aa(lp1726
g418
(g422
S'\xa7\x00\x00\x00'
p1727
tp1728
Rp1729
ag418
(g422
S'\xf7\x00\x00\x00'
p1730
tp1731
Rp1732
aa(lp1733
g418
(g422
S'\xc2\x00\x00\x00'
p1734
tp1735
Rp1736
ag418
(g422
S'\xf5\x00\x00\x00'
p1737
tp1738
Rp1739
aa(lp1740
g418
(g422
S'\xdc\x00\x00\x00'
p1741
tp1742
Rp1743
ag418
(g422
S'\xf8\x00\x00\x00'
p1744
tp1745
Rp1746
aa(lp1747
g418
(g422
S'\xf6\x00\x00\x00'
p1748
tp1749
Rp1750
ag418
(g422
S'\xf6\x00\x00\x00'
p1751
tp1752
Rp1753
aa(lp1754
g418
(g422
S'\x12\x01\x00\x00'
p1755
tp1756
Rp1757
ag418
(g422
S'\xf5\x00\x00\x00'
p1758
tp1759
Rp1760
aa(lp1761
g418
(g422
S'+\x01\x00\x00'
p1762
tp1763
Rp1764
ag418
(g422
S'\xf6\x00\x00\x00'
p1765
tp1766
Rp1767
aa(lp1768
g418
(g422
S'G\x01\x00\x00'
p1769
tp1770
Rp1771
ag418
(g422
S'\xf6\x00\x00\x00'
p1772
tp1773
Rp1774
aa(lp1775
g418
(g422
S'b\x01\x00\x00'
p1776
tp1777
Rp1778
ag418
(g422
S'\xf7\x00\x00\x00'
p1779
tp1780
Rp1781
aa(lp1782
g418
(g422
S'{\x01\x00\x00'
p1783
tp1784
Rp1785
ag418
(g422
S'\xf6\x00\x00\x00'
p1786
tp1787
Rp1788
aa(lp1789
g418
(g422
S'\x95\x01\x00\x00'
p1790
tp1791
Rp1792
ag418
(g422
S'\xf7\x00\x00\x00'
p1793
tp1794
Rp1795
aa(lp1796
g418
(g422
S'\xb2\x01\x00\x00'
p1797
tp1798
Rp1799
ag418
(g422
S'\xf4\x00\x00\x00'
p1800
tp1801
Rp1802
aa(lp1803
g418
(g422
S'\xca\x01\x00\x00'
p1804
tp1805
Rp1806
ag418
(g422
S'\xf8\x00\x00\x00'
p1807
tp1808
Rp1809
aa(lp1810
g418
(g422
S'\xe6\x01\x00\x00'
p1811
tp1812
Rp1813
ag418
(g422
S'\xf6\x00\x00\x00'
p1814
tp1815
Rp1816
aa(lp1817
g418
(g422
S'\x00\x02\x00\x00'
p1818
tp1819
Rp1820
ag418
(g422
S'\xf6\x00\x00\x00'
p1821
tp1822
Rp1823
aa(lp1824
g418
(g422
S'\x08\x00\x00\x00'
p1825
tp1826
Rp1827
ag418
(g422
S'\x12\x01\x00\x00'
p1828
tp1829
Rp1830
aa(lp1831
g418
(g422
S'"\x00\x00\x00'
p1832
tp1833
Rp1834
ag418
(g422
S'\x10\x01\x00\x00'
p1835
tp1836
Rp1837
aa(lp1838
g418
(g422
S';\x00\x00\x00'
p1839
tp1840
Rp1841
ag418
(g422
S'\x11\x01\x00\x00'
p1842
tp1843
Rp1844
aa(lp1845
g418
(g422
S'Y\x00\x00\x00'
p1846
tp1847
Rp1848
ag418
(g422
S'\x12\x01\x00\x00'
p1849
tp1850
Rp1851
aa(lp1852
g418
(g422
S'q\x00\x00\x00'
p1853
tp1854
Rp1855
ag418
(g422
S'\x11\x01\x00\x00'
p1856
tp1857
Rp1858
aa(lp1859
g418
(g422
S'\x8b\x00\x00\x00'
p1860
tp1861
Rp1862
ag418
(g422
S'\x12\x01\x00\x00'
p1863
tp1864
Rp1865
aa(lp1866
g418
(g422
S'\xa7\x00\x00\x00'
p1867
tp1868
Rp1869
ag418
(g422
S'\x11\x01\x00\x00'
p1870
tp1871
Rp1872
aa(lp1873
g418
(g422
S'\xc0\x00\x00\x00'
p1874
tp1875
Rp1876
ag418
(g422
S'\x11\x01\x00\x00'
p1877
tp1878
Rp1879
aa(lp1880
g418
(g422
S'\xdb\x00\x00\x00'
p1881
tp1882
Rp1883
ag418
(g422
S'\x11\x01\x00\x00'
p1884
tp1885
Rp1886
aa(lp1887
g418
(g422
S'\xf8\x00\x00\x00'
p1888
tp1889
Rp1890
ag418
(g422
S'\x0e\x01\x00\x00'
p1891
tp1892
Rp1893
aa(lp1894
g418
(g422
S'\x10\x01\x00\x00'
p1895
tp1896
Rp1897
ag418
(g422
S'\x12\x01\x00\x00'
p1898
tp1899
Rp1900
aa(lp1901
g418
(g422
S',\x01\x00\x00'
p1902
tp1903
Rp1904
ag418
(g422
S'\x10\x01\x00\x00'
p1905
tp1906
Rp1907
aa(lp1908
g418
(g422
S'E\x01\x00\x00'
p1909
tp1910
Rp1911
ag418
(g422
S'\x12\x01\x00\x00'
p1912
tp1913
Rp1914
aa(lp1915
g418
(g422
S'`\x01\x00\x00'
p1916
tp1917
Rp1918
ag418
(g422
S'\x11\x01\x00\x00'
p1919
tp1920
Rp1921
aa(lp1922
g418
(g422
S'y\x01\x00\x00'
p1923
tp1924
Rp1925
ag418
(g422
S'\x12\x01\x00\x00'
p1926
tp1927
Rp1928
aa(lp1929
g418
(g422
S'\x95\x01\x00\x00'
p1930
tp1931
Rp1932
ag418
(g422
S'\x12\x01\x00\x00'
p1933
tp1934
Rp1935
aa(lp1936
g418
(g422
S'\xb0\x01\x00\x00'
p1937
tp1938
Rp1939
ag418
(g422
S'\x10\x01\x00\x00'
p1940
tp1941
Rp1942
aa(lp1943
g418
(g422
S'\xca\x01\x00\x00'
p1944
tp1945
Rp1946
ag418
(g422
S'\x13\x01\x00\x00'
p1947
tp1948
Rp1949
aa(lp1950
g418
(g422
S'\xe6\x01\x00\x00'
p1951
tp1952
Rp1953
ag418
(g422
S'\x11\x01\x00\x00'
p1954
tp1955
Rp1956
aa(lp1957
g418
(g422
S'\xff\x01\x00\x00'
p1958
tp1959
Rp1960
ag418
(g422
S'\x12\x01\x00\x00'
p1961
tp1962
Rp1963
aa(lp1964
g418
(g422
S'\t\x00\x00\x00'
p1965
tp1966
Rp1967
ag418
(g422
S',\x01\x00\x00'
p1968
tp1969
Rp1970
aa(lp1971
g418
(g422
S'#\x00\x00\x00'
p1972
tp1973
Rp1974
ag418
(g422
S'+\x01\x00\x00'
p1975
tp1976
Rp1977
aa(lp1978
g418
(g422
S'>\x00\x00\x00'
p1979
tp1980
Rp1981
ag418
(g422
S'-\x01\x00\x00'
p1982
tp1983
Rp1984
aa(lp1985
g418
(g422
S'Y\x00\x00\x00'
p1986
tp1987
Rp1988
ag418
(g422
S',\x01\x00\x00'
p1989
tp1990
Rp1991
aa(lp1992
g418
(g422
S'r\x00\x00\x00'
p1993
tp1994
Rp1995
ag418
(g422
S',\x01\x00\x00'
p1996
tp1997
Rp1998
aa(lp1999
g418
(g422
S'\x8d\x00\x00\x00'
p2000
tp2001
Rp2002
ag418
(g422
S'+\x01\x00\x00'
p2003
tp2004
Rp2005
aa(lp2006
g418
(g422
S'\xa6\x00\x00\x00'
p2007
tp2008
Rp2009
ag418
(g422
S'-\x01\x00\x00'
p2010
tp2011
Rp2012
aa(lp2013
g418
(g422
S'\xc0\x00\x00\x00'
p2014
tp2015
Rp2016
ag418
(g422
S'*\x01\x00\x00'
p2017
tp2018
Rp2019
aa(lp2020
g418
(g422
S'\xdc\x00\x00\x00'
p2021
tp2022
Rp2023
ag418
(g422
S'-\x01\x00\x00'
p2024
tp2025
Rp2026
aa(lp2027
g418
(g422
S'\xf6\x00\x00\x00'
p2028
tp2029
Rp2030
ag418
(g422
S'*\x01\x00\x00'
p2031
tp2032
Rp2033
aa(lp2034
g418
(g422
S'\x10\x01\x00\x00'
p2035
tp2036
Rp2037
ag418
(g422
S'*\x01\x00\x00'
p2038
tp2039
Rp2040
aa(lp2041
g418
(g422
S'+\x01\x00\x00'
p2042
tp2043
Rp2044
ag418
(g422
S'+\x01\x00\x00'
p2045
tp2046
Rp2047
aa(lp2048
g418
(g422
S'E\x01\x00\x00'
p2049
tp2050
Rp2051
ag418
(g422
S'+\x01\x00\x00'
p2052
tp2053
Rp2054
aa(lp2055
g418
(g422
S'`\x01\x00\x00'
p2056
tp2057
Rp2058
ag418
(g422
S')\x01\x00\x00'
p2059
tp2060
Rp2061
aa(lp2062
g418
(g422
S'z\x01\x00\x00'
p2063
tp2064
Rp2065
ag418
(g422
S'+\x01\x00\x00'
p2066
tp2067
Rp2068
aa(lp2069
g418
(g422
S'\x95\x01\x00\x00'
p2070
tp2071
Rp2072
ag418
(g422
S',\x01\x00\x00'
p2073
tp2074
Rp2075
aa(lp2076
g418
(g422
S'\xaf\x01\x00\x00'
p2077
tp2078
Rp2079
ag418
(g422
S'-\x01\x00\x00'
p2080
tp2081
Rp2082
aa(lp2083
g418
(g422
S'\xc9\x01\x00\x00'
p2084
tp2085
Rp2086
ag418
(g422
S'+\x01\x00\x00'
p2087
tp2088
Rp2089
aa(lp2090
g418
(g422
S'\xe5\x01\x00\x00'
p2091
tp2092
Rp2093
ag418
(g422
S'+\x01\x00\x00'
p2094
tp2095
Rp2096
aa(lp2097
g418
(g422
S'\xff\x01\x00\x00'
p2098
tp2099
Rp2100
ag418
(g422
S'+\x01\x00\x00'
p2101
tp2102
Rp2103
aa(lp2104
g418
(g422
S'\x08\x00\x00\x00'
p2105
tp2106
Rp2107
ag418
(g422
S'E\x01\x00\x00'
p2108
tp2109
Rp2110
aa(lp2111
g418
(g422
S'"\x00\x00\x00'
p2112
tp2113
Rp2114
ag418
(g422
S'F\x01\x00\x00'
p2115
tp2116
Rp2117
aa(lp2118
g418
(g422
S'<\x00\x00\x00'
p2119
tp2120
Rp2121
ag418
(g422
S'E\x01\x00\x00'
p2122
tp2123
Rp2124
aa(lp2125
g418
(g422
S'X\x00\x00\x00'
p2126
tp2127
Rp2128
ag418
(g422
S'E\x01\x00\x00'
p2129
tp2130
Rp2131
aa(lp2132
g418
(g422
S'r\x00\x00\x00'
p2133
tp2134
Rp2135
ag418
(g422
S'F\x01\x00\x00'
p2136
tp2137
Rp2138
aa(lp2139
g418
(g422
S'\x8d\x00\x00\x00'
p2140
tp2141
Rp2142
ag418
(g422
S'E\x01\x00\x00'
p2143
tp2144
Rp2145
aa(lp2146
g418
(g422
S'\xa7\x00\x00\x00'
p2147
tp2148
Rp2149
ag418
(g422
S'E\x01\x00\x00'
p2150
tp2151
Rp2152
aa(lp2153
g418
(g422
S'\xbf\x00\x00\x00'
p2154
tp2155
Rp2156
ag418
(g422
S'G\x01\x00\x00'
p2157
tp2158
Rp2159
aa(lp2160
g418
(g422
S'\xde\x00\x00\x00'
p2161
tp2162
Rp2163
ag418
(g422
S'E\x01\x00\x00'
p2164
tp2165
Rp2166
aa(lp2167
g418
(g422
S'\xf5\x00\x00\x00'
p2168
tp2169
Rp2170
ag418
(g422
S'E\x01\x00\x00'
p2171
tp2172
Rp2173
aa(lp2174
g418
(g422
S'\x11\x01\x00\x00'
p2175
tp2176
Rp2177
ag418
(g422
S'E\x01\x00\x00'
p2178
tp2179
Rp2180
aa(lp2181
g418
(g422
S',\x01\x00\x00'
p2182
tp2183
Rp2184
ag418
(g422
S'F\x01\x00\x00'
p2185
tp2186
Rp2187
aa(lp2188
g418
(g422
S'E\x01\x00\x00'
p2189
tp2190
Rp2191
ag418
(g422
S'E\x01\x00\x00'
p2192
tp2193
Rp2194
aa(lp2195
g418
(g422
S'a\x01\x00\x00'
p2196
tp2197
Rp2198
ag418
(g422
S'E\x01\x00\x00'
p2199
tp2200
Rp2201
aa(lp2202
g418
(g422
S'{\x01\x00\x00'
p2203
tp2204
Rp2205
ag418
(g422
S'G\x01\x00\x00'
p2206
tp2207
Rp2208
aa(lp2209
g418
(g422
S'\x97\x01\x00\x00'
p2210
tp2211
Rp2212
ag418
(g422
S'F\x01\x00\x00'
p2213
tp2214
Rp2215
aa(lp2216
g418
(g422
S'\xb0\x01\x00\x00'
p2217
tp2218
Rp2219
ag418
(g422
S'F\x01\x00\x00'
p2220
tp2221
Rp2222
aa(lp2223
g418
(g422
S'\xc9\x01\x00\x00'
p2224
tp2225
Rp2226
ag418
(g422
S'G\x01\x00\x00'
p2227
tp2228
Rp2229
aa(lp2230
g418
(g422
S'\xe7\x01\x00\x00'
p2231
tp2232
Rp2233
ag418
(g422
S'F\x01\x00\x00'
p2234
tp2235
Rp2236
aa(lp2237
g418
(g422
S'\x00\x02\x00\x00'
p2238
tp2239
Rp2240
ag418
(g422
S'E\x01\x00\x00'
p2241
tp2242
Rp2243
aa(lp2244
g418
(g422
S'\t\x00\x00\x00'
p2245
tp2246
Rp2247
ag418
(g422
S'b\x01\x00\x00'
p2248
tp2249
Rp2250
aa(lp2251
g418
(g422
S'#\x00\x00\x00'
p2252
tp2253
Rp2254
ag418
(g422
S'`\x01\x00\x00'
p2255
tp2256
Rp2257
aa(lp2258
g418
(g422
S'>\x00\x00\x00'
p2259
tp2260
Rp2261
ag418
(g422
S'`\x01\x00\x00'
p2262
tp2263
Rp2264
aa(lp2265
g418
(g422
S'W\x00\x00\x00'
p2266
tp2267
Rp2268
ag418
(g422
S'b\x01\x00\x00'
p2269
tp2270
Rp2271
aa(lp2272
g418
(g422
S'p\x00\x00\x00'
p2273
tp2274
Rp2275
ag418
(g422
S'_\x01\x00\x00'
p2276
tp2277
Rp2278
aa(lp2279
g418
(g422
S'\x8d\x00\x00\x00'
p2280
tp2281
Rp2282
ag418
(g422
S'`\x01\x00\x00'
p2283
tp2284
Rp2285
aa(lp2286
g418
(g422
S'\xa6\x00\x00\x00'
p2287
tp2288
Rp2289
ag418
(g422
S'a\x01\x00\x00'
p2290
tp2291
Rp2292
aa(lp2293
g418
(g422
S'\xc0\x00\x00\x00'
p2294
tp2295
Rp2296
ag418
(g422
S'`\x01\x00\x00'
p2297
tp2298
Rp2299
aa(lp2300
g418
(g422
S'\xdd\x00\x00\x00'
p2301
tp2302
Rp2303
ag418
(g422
S'b\x01\x00\x00'
p2304
tp2305
Rp2306
aa(lp2307
g418
(g422
S'\xf7\x00\x00\x00'
p2308
tp2309
Rp2310
ag418
(g422
S'`\x01\x00\x00'
p2311
tp2312
Rp2313
aa(lp2314
g418
(g422
S'\x11\x01\x00\x00'
p2315
tp2316
Rp2317
ag418
(g422
S'`\x01\x00\x00'
p2318
tp2319
Rp2320
aa(lp2321
g418
(g422
S'+\x01\x00\x00'
p2322
tp2323
Rp2324
ag418
(g422
S'_\x01\x00\x00'
p2325
tp2326
Rp2327
aa(lp2328
g418
(g422
S'C\x01\x00\x00'
p2329
tp2330
Rp2331
ag418
(g422
S'`\x01\x00\x00'
p2332
tp2333
Rp2334
aa(lp2335
g418
(g422
S'_\x01\x00\x00'
p2336
tp2337
Rp2338
ag418
(g422
S'b\x01\x00\x00'
p2339
tp2340
Rp2341
aa(lp2342
g418
(g422
S'z\x01\x00\x00'
p2343
tp2344
Rp2345
ag418
(g422
S'`\x01\x00\x00'
p2346
tp2347
Rp2348
aa(lp2349
g418
(g422
S'\x94\x01\x00\x00'
p2350
tp2351
Rp2352
ag418
(g422
S'a\x01\x00\x00'
p2353
tp2354
Rp2355
aa(lp2356
g418
(g422
S'\xaf\x01\x00\x00'
p2357
tp2358
Rp2359
ag418
(g422
S'`\x01\x00\x00'
p2360
tp2361
Rp2362
aa(lp2363
g418
(g422
S'\xca\x01\x00\x00'
p2364
tp2365
Rp2366
ag418
(g422
S'`\x01\x00\x00'
p2367
tp2368
Rp2369
aa(lp2370
g418
(g422
S'\xe5\x01\x00\x00'
p2371
tp2372
Rp2373
ag418
(g422
S'_\x01\x00\x00'
p2374
tp2375
Rp2376
aa(lp2377
g418
(g422
S'\x00\x02\x00\x00'
p2378
tp2379
Rp2380
ag418
(g422
S'`\x01\x00\x00'
p2381
tp2382
Rp2383
aa(lp2384
g418
(g422
S'\x08\x00\x00\x00'
p2385
tp2386
Rp2387
ag418
(g422
S'|\x01\x00\x00'
p2388
tp2389
Rp2390
aa(lp2391
g418
(g422
S'!\x00\x00\x00'
p2392
tp2393
Rp2394
ag418
(g422
S'y\x01\x00\x00'
p2395
tp2396
Rp2397
aa(lp2398
g418
(g422
S'<\x00\x00\x00'
p2399
tp2400
Rp2401
ag418
(g422
S'z\x01\x00\x00'
p2402
tp2403
Rp2404
aa(lp2405
g418
(g422
S'V\x00\x00\x00'
p2406
tp2407
Rp2408
ag418
(g422
S'z\x01\x00\x00'
p2409
tp2410
Rp2411
aa(lp2412
g418
(g422
S'r\x00\x00\x00'
p2413
tp2414
Rp2415
ag418
(g422
S'{\x01\x00\x00'
p2416
tp2417
Rp2418
aa(lp2419
g418
(g422
S'\x8d\x00\x00\x00'
p2420
tp2421
Rp2422
ag418
(g422
S'z\x01\x00\x00'
p2423
tp2424
Rp2425
aa(lp2426
g418
(g422
S'\xa8\x00\x00\x00'
p2427
tp2428
Rp2429
ag418
(g422
S'}\x01\x00\x00'
p2430
tp2431
Rp2432
aa(lp2433
g418
(g422
S'\xc2\x00\x00\x00'
p2434
tp2435
Rp2436
ag418
(g422
S'z\x01\x00\x00'
p2437
tp2438
Rp2439
aa(lp2440
g418
(g422
S'\xdc\x00\x00\x00'
p2441
tp2442
Rp2443
ag418
(g422
S'z\x01\x00\x00'
p2444
tp2445
Rp2446
aa(lp2447
g418
(g422
S'\xf9\x00\x00\x00'
p2448
tp2449
Rp2450
ag418
(g422
S'y\x01\x00\x00'
p2451
tp2452
Rp2453
aa(lp2454
g418
(g422
S'\x0f\x01\x00\x00'
p2455
tp2456
Rp2457
ag418
(g422
S'{\x01\x00\x00'
p2458
tp2459
Rp2460
aa(lp2461
g418
(g422
S',\x01\x00\x00'
p2462
tp2463
Rp2464
ag418
(g422
S'|\x01\x00\x00'
p2465
tp2466
Rp2467
aa(lp2468
g418
(g422
S'F\x01\x00\x00'
p2469
tp2470
Rp2471
ag418
(g422
S'|\x01\x00\x00'
p2472
tp2473
Rp2474
aa(lp2475
g418
(g422
S'`\x01\x00\x00'
p2476
tp2477
Rp2478
ag418
(g422
S'{\x01\x00\x00'
p2479
tp2480
Rp2481
aa(lp2482
g418
(g422
S'|\x01\x00\x00'
p2483
tp2484
Rp2485
ag418
(g422
S'|\x01\x00\x00'
p2486
tp2487
Rp2488
aa(lp2489
g418
(g422
S'\x94\x01\x00\x00'
p2490
tp2491
Rp2492
ag418
(g422
S'z\x01\x00\x00'
p2493
tp2494
Rp2495
aa(lp2496
g418
(g422
S'\xaf\x01\x00\x00'
p2497
tp2498
Rp2499
ag418
(g422
S'{\x01\x00\x00'
p2500
tp2501
Rp2502
aa(lp2503
g418
(g422
S'\xc9\x01\x00\x00'
p2504
tp2505
Rp2506
ag418
(g422
S'z\x01\x00\x00'
p2507
tp2508
Rp2509
aa(lp2510
g418
(g422
S'\xe5\x01\x00\x00'
p2511
tp2512
Rp2513
ag418
(g422
S'{\x01\x00\x00'
p2514
tp2515
Rp2516
aa(lp2517
g418
(g422
S'\x00\x02\x00\x00'
p2518
tp2519
Rp2520
ag418
(g422
S'}\x01\x00\x00'
p2521
tp2522
Rp2523
aa(lp2524
g418
(g422
S'\x08\x00\x00\x00'
p2525
tp2526
Rp2527
ag418
(g422
S'\x96\x01\x00\x00'
p2528
tp2529
Rp2530
aa(lp2531
g418
(g422
S'"\x00\x00\x00'
p2532
tp2533
Rp2534
ag418
(g422
S'\x95\x01\x00\x00'
p2535
tp2536
Rp2537
aa(lp2538
g418
(g422
S'=\x00\x00\x00'
p2539
tp2540
Rp2541
ag418
(g422
S'\x98\x01\x00\x00'
p2542
tp2543
Rp2544
aa(lp2545
g418
(g422
S'W\x00\x00\x00'
p2546
tp2547
Rp2548
ag418
(g422
S'\x96\x01\x00\x00'
p2549
tp2550
Rp2551
aa(lp2552
g418
(g422
S'q\x00\x00\x00'
p2553
tp2554
Rp2555
ag418
(g422
S'\x95\x01\x00\x00'
p2556
tp2557
Rp2558
aa(lp2559
g418
(g422
S'\x8e\x00\x00\x00'
p2560
tp2561
Rp2562
ag418
(g422
S'\x95\x01\x00\x00'
p2563
tp2564
Rp2565
aa(lp2566
g418
(g422
S'\xa5\x00\x00\x00'
p2567
tp2568
Rp2569
ag418
(g422
S'\x96\x01\x00\x00'
p2570
tp2571
Rp2572
aa(lp2573
g418
(g422
S'\xc1\x00\x00\x00'
p2574
tp2575
Rp2576
ag418
(g422
S'\x94\x01\x00\x00'
p2577
tp2578
Rp2579
aa(lp2580
g418
(g422
S'\xda\x00\x00\x00'
p2581
tp2582
Rp2583
ag418
(g422
S'\x96\x01\x00\x00'
p2584
tp2585
Rp2586
aa(lp2587
g418
(g422
S'\xf6\x00\x00\x00'
p2588
tp2589
Rp2590
ag418
(g422
S'\x94\x01\x00\x00'
p2591
tp2592
Rp2593
aa(lp2594
g418
(g422
S'\x11\x01\x00\x00'
p2595
tp2596
Rp2597
ag418
(g422
S'\x96\x01\x00\x00'
p2598
tp2599
Rp2600
aa(lp2601
g418
(g422
S'-\x01\x00\x00'
p2602
tp2603
Rp2604
ag418
(g422
S'\x95\x01\x00\x00'
p2605
tp2606
Rp2607
aa(lp2608
g418
(g422
S'F\x01\x00\x00'
p2609
tp2610
Rp2611
ag418
(g422
S'\x97\x01\x00\x00'
p2612
tp2613
Rp2614
aa(lp2615
g418
(g422
S'a\x01\x00\x00'
p2616
tp2617
Rp2618
ag418
(g422
S'\x95\x01\x00\x00'
p2619
tp2620
Rp2621
aa(lp2622
g418
(g422
S'z\x01\x00\x00'
p2623
tp2624
Rp2625
ag418
(g422
S'\x96\x01\x00\x00'
p2626
tp2627
Rp2628
aa(lp2629
g418
(g422
S'\x95\x01\x00\x00'
p2630
tp2631
Rp2632
ag418
(g422
S'\x94\x01\x00\x00'
p2633
tp2634
Rp2635
aa(lp2636
g418
(g422
S'\xaf\x01\x00\x00'
p2637
tp2638
Rp2639
ag418
(g422
S'\x95\x01\x00\x00'
p2640
tp2641
Rp2642
aa(lp2643
g418
(g422
S'\xcc\x01\x00\x00'
p2644
tp2645
Rp2646
ag418
(g422
S'\x95\x01\x00\x00'
p2647
tp2648
Rp2649
aa(lp2650
g418
(g422
S'\xe4\x01\x00\x00'
p2651
tp2652
Rp2653
ag418
(g422
S'\x96\x01\x00\x00'
p2654
tp2655
Rp2656
aa(lp2657
g418
(g422
S'\xff\x01\x00\x00'
p2658
tp2659
Rp2660
ag418
(g422
S'\x97\x01\x00\x00'
p2661
tp2662
Rp2663
aa(lp2664
g418
(g422
S'\x08\x00\x00\x00'
p2665
tp2666
Rp2667
ag418
(g422
S'\xb1\x01\x00\x00'
p2668
tp2669
Rp2670
aa(lp2671
g418
(g422
S'$\x00\x00\x00'
p2672
tp2673
Rp2674
ag418
(g422
S'\xb1\x01\x00\x00'
p2675
tp2676
Rp2677
aa(lp2678
g418
(g422
S';\x00\x00\x00'
p2679
tp2680
Rp2681
ag418
(g422
S'\xb0\x01\x00\x00'
p2682
tp2683
Rp2684
aa(lp2685
g418
(g422
S'X\x00\x00\x00'
p2686
tp2687
Rp2688
ag418
(g422
S'\xb2\x01\x00\x00'
p2689
tp2690
Rp2691
aa(lp2692
g418
(g422
S'q\x00\x00\x00'
p2693
tp2694
Rp2695
ag418
(g422
S'\xb0\x01\x00\x00'
p2696
tp2697
Rp2698
aa(lp2699
g418
(g422
S'\x8e\x00\x00\x00'
p2700
tp2701
Rp2702
ag418
(g422
S'\xb0\x01\x00\x00'
p2703
tp2704
Rp2705
aa(lp2706
g418
(g422
S'\xa6\x00\x00\x00'
p2707
tp2708
Rp2709
ag418
(g422
S'\xb0\x01\x00\x00'
p2710
tp2711
Rp2712
aa(lp2713
g418
(g422
S'\xc1\x00\x00\x00'
p2714
tp2715
Rp2716
ag418
(g422
S'\xb0\x01\x00\x00'
p2717
tp2718
Rp2719
aa(lp2720
g418
(g422
S'\xdb\x00\x00\x00'
p2721
tp2722
Rp2723
ag418
(g422
S'\xb0\x01\x00\x00'
p2724
tp2725
Rp2726
aa(lp2727
g418
(g422
S'\xf6\x00\x00\x00'
p2728
tp2729
Rp2730
ag418
(g422
S'\xb1\x01\x00\x00'
p2731
tp2732
Rp2733
aa(lp2734
g418
(g422
S'\x0f\x01\x00\x00'
p2735
tp2736
Rp2737
ag418
(g422
S'\xb0\x01\x00\x00'
p2738
tp2739
Rp2740
aa(lp2741
g418
(g422
S'*\x01\x00\x00'
p2742
tp2743
Rp2744
ag418
(g422
S'\xb1\x01\x00\x00'
p2745
tp2746
Rp2747
aa(lp2748
g418
(g422
S'G\x01\x00\x00'
p2749
tp2750
Rp2751
ag418
(g422
S'\xb1\x01\x00\x00'
p2752
tp2753
Rp2754
aa(lp2755
g418
(g422
S'`\x01\x00\x00'
p2756
tp2757
Rp2758
ag418
(g422
S'\xb0\x01\x00\x00'
p2759
tp2760
Rp2761
aa(lp2762
g418
(g422
S'z\x01\x00\x00'
p2763
tp2764
Rp2765
ag418
(g422
S'\xaf\x01\x00\x00'
p2766
tp2767
Rp2768
aa(lp2769
g418
(g422
S'\x95\x01\x00\x00'
p2770
tp2771
Rp2772
ag418
(g422
S'\xaf\x01\x00\x00'
p2773
tp2774
Rp2775
aa(lp2776
g418
(g422
S'\xaf\x01\x00\x00'
p2777
tp2778
Rp2779
ag418
(g422
S'\xae\x01\x00\x00'
p2780
tp2781
Rp2782
aa(lp2783
g418
(g422
S'\xcb\x01\x00\x00'
p2784
tp2785
Rp2786
ag418
(g422
S'\xb0\x01\x00\x00'
p2787
tp2788
Rp2789
aa(lp2790
g418
(g422
S'\xe6\x01\x00\x00'
p2791
tp2792
Rp2793
ag418
(g422
S'\xaf\x01\x00\x00'
p2794
tp2795
Rp2796
aa(lp2797
g418
(g422
S'\x00\x02\x00\x00'
p2798
tp2799
Rp2800
ag418
(g422
S'\xb0\x01\x00\x00'
p2801
tp2802
Rp2803
aa(lp2804
g418
(g422
S'\x08\x00\x00\x00'
p2805
tp2806
Rp2807
ag418
(g422
S'\xca\x01\x00\x00'
p2808
tp2809
Rp2810
aa(lp2811
g418
(g422
S'"\x00\x00\x00'
p2812
tp2813
Rp2814
ag418
(g422
S'\xca\x01\x00\x00'
p2815
tp2816
Rp2817
aa(lp2818
g418
(g422
S'=\x00\x00\x00'
p2819
tp2820
Rp2821
ag418
(g422
S'\xc9\x01\x00\x00'
p2822
tp2823
Rp2824
aa(lp2825
g418
(g422
S'W\x00\x00\x00'
p2826
tp2827
Rp2828
ag418
(g422
S'\xc9\x01\x00\x00'
p2829
tp2830
Rp2831
aa(lp2832
g418
(g422
S'q\x00\x00\x00'
p2833
tp2834
Rp2835
ag418
(g422
S'\xcb\x01\x00\x00'
p2836
tp2837
Rp2838
aa(lp2839
g418
(g422
S'\x8a\x00\x00\x00'
p2840
tp2841
Rp2842
ag418
(g422
S'\xca\x01\x00\x00'
p2843
tp2844
Rp2845
aa(lp2846
g418
(g422
S'\xa8\x00\x00\x00'
p2847
tp2848
Rp2849
ag418
(g422
S'\xca\x01\x00\x00'
p2850
tp2851
Rp2852
aa(lp2853
g418
(g422
S'\xc1\x00\x00\x00'
p2854
tp2855
Rp2856
ag418
(g422
S'\xcb\x01\x00\x00'
p2857
tp2858
Rp2859
aa(lp2860
g418
(g422
S'\xdd\x00\x00\x00'
p2861
tp2862
Rp2863
ag418
(g422
S'\xc9\x01\x00\x00'
p2864
tp2865
Rp2866
aa(lp2867
g418
(g422
S'\xf6\x00\x00\x00'
p2868
tp2869
Rp2870
ag418
(g422
S'\xca\x01\x00\x00'
p2871
tp2872
Rp2873
aa(lp2874
g418
(g422
S'\x10\x01\x00\x00'
p2875
tp2876
Rp2877
ag418
(g422
S'\xc9\x01\x00\x00'
p2878
tp2879
Rp2880
aa(lp2881
g418
(g422
S'+\x01\x00\x00'
p2882
tp2883
Rp2884
ag418
(g422
S'\xca\x01\x00\x00'
p2885
tp2886
Rp2887
aa(lp2888
g418
(g422
S'D\x01\x00\x00'
p2889
tp2890
Rp2891
ag418
(g422
S'\xcb\x01\x00\x00'
p2892
tp2893
Rp2894
aa(lp2895
g418
(g422
S'a\x01\x00\x00'
p2896
tp2897
Rp2898
ag418
(g422
S'\xcb\x01\x00\x00'
p2899
tp2900
Rp2901
aa(lp2902
g418
(g422
S'z\x01\x00\x00'
p2903
tp2904
Rp2905
ag418
(g422
S'\xca\x01\x00\x00'
p2906
tp2907
Rp2908
aa(lp2909
g418
(g422
S'\x94\x01\x00\x00'
p2910
tp2911
Rp2912
ag418
(g422
S'\xca\x01\x00\x00'
p2913
tp2914
Rp2915
aa(lp2916
g418
(g422
S'\xb2\x01\x00\x00'
p2917
tp2918
Rp2919
ag418
(g422
S'\xcb\x01\x00\x00'
p2920
tp2921
Rp2922
aa(lp2923
g418
(g422
S'\xcc\x01\x00\x00'
p2924
tp2925
Rp2926
ag418
(g422
S'\xcd\x01\x00\x00'
p2927
tp2928
Rp2929
aa(lp2930
g418
(g422
S'\xe5\x01\x00\x00'
p2931
tp2932
Rp2933
ag418
(g422
S'\xca\x01\x00\x00'
p2934
tp2935
Rp2936
aa(lp2937
g418
(g422
S'\x00\x02\x00\x00'
p2938
tp2939
Rp2940
ag418
(g422
S'\xca\x01\x00\x00'
p2941
tp2942
Rp2943
aa(lp2944
g418
(g422
S'\n\x00\x00\x00'
p2945
tp2946
Rp2947
ag418
(g422
S'\xe4\x01\x00\x00'
p2948
tp2949
Rp2950
aa(lp2951
g418
(g422
S'"\x00\x00\x00'
p2952
tp2953
Rp2954
ag418
(g422
S'\xe7\x01\x00\x00'
p2955
tp2956
Rp2957
aa(lp2958
g418
(g422
S'<\x00\x00\x00'
p2959
tp2960
Rp2961
ag418
(g422
S'\xe6\x01\x00\x00'
p2962
tp2963
Rp2964
aa(lp2965
g418
(g422
S'X\x00\x00\x00'
p2966
tp2967
Rp2968
ag418
(g422
S'\xe4\x01\x00\x00'
p2969
tp2970
Rp2971
aa(lp2972
g418
(g422
S'q\x00\x00\x00'
p2973
tp2974
Rp2975
ag418
(g422
S'\xe3\x01\x00\x00'
p2976
tp2977
Rp2978
aa(lp2979
g418
(g422
S'\x8d\x00\x00\x00'
p2980
tp2981
Rp2982
ag418
(g422
S'\xe5\x01\x00\x00'
p2983
tp2984
Rp2985
aa(lp2986
g418
(g422
S'\xa6\x00\x00\x00'
p2987
tp2988
Rp2989
ag418
(g422
S'\xe5\x01\x00\x00'
p2990
tp2991
Rp2992
aa(lp2993
g418
(g422
S'\xc1\x00\x00\x00'
p2994
tp2995
Rp2996
ag418
(g422
S'\xe6\x01\x00\x00'
p2997
tp2998
Rp2999
aa(lp3000
g418
(g422
S'\xdd\x00\x00\x00'
p3001
tp3002
Rp3003
ag418
(g422
S'\xe5\x01\x00\x00'
p3004
tp3005
Rp3006
aa(lp3007
g418
(g422
S'\xf7\x00\x00\x00'
p3008
tp3009
Rp3010
ag418
(g422
S'\xe6\x01\x00\x00'
p3011
tp3012
Rp3013
aa(lp3014
g418
(g422
S'\x12\x01\x00\x00'
p3015
tp3016
Rp3017
ag418
(g422
S'\xe6\x01\x00\x00'
p3018
tp3019
Rp3020
aa(lp3021
g418
(g422
S'+\x01\x00\x00'
p3022
tp3023
Rp3024
ag418
(g422
S'\xe4\x01\x00\x00'
p3025
tp3026
Rp3027
aa(lp3028
g418
(g422
S'F\x01\x00\x00'
p3029
tp3030
Rp3031
ag418
(g422
S'\xe5\x01\x00\x00'
p3032
tp3033
Rp3034
aa(lp3035
g418
(g422
S'd\x01\x00\x00'
p3036
tp3037
Rp3038
ag418
(g422
S'\xe7\x01\x00\x00'
p3039
tp3040
Rp3041
aa(lp3042
g418
(g422
S'{\x01\x00\x00'
p3043
tp3044
Rp3045
ag418
(g422
S'\xe5\x01\x00\x00'
p3046
tp3047
Rp3048
aa(lp3049
g418
(g422
S'\x99\x01\x00\x00'
p3050
tp3051
Rp3052
ag418
(g422
S'\xe6\x01\x00\x00'
p3053
tp3054
Rp3055
aa(lp3056
g418
(g422
S'\xb1\x01\x00\x00'
p3057
tp3058
Rp3059
ag418
(g422
S'\xe5\x01\x00\x00'
p3060
tp3061
Rp3062
aa(lp3063
g418
(g422
S'\xcb\x01\x00\x00'
p3064
tp3065
Rp3066
ag418
(g422
S'\xe6\x01\x00\x00'
p3067
tp3068
Rp3069
aa(lp3070
g418
(g422
S'\xe7\x01\x00\x00'
p3071
tp3072
Rp3073
ag418
(g422
S'\xe6\x01\x00\x00'
p3074
tp3075
Rp3076
aa(lp3077
g418
(g422
S'\xff\x01\x00\x00'
p3078
tp3079
Rp3080
ag418
(g422
S'\xe5\x01\x00\x00'
p3081
tp3082
Rp3083
aa(lp3084
g418
(g422
S'\x08\x00\x00\x00'
p3085
tp3086
Rp3087
ag418
(g422
S'\xff\x01\x00\x00'
p3088
tp3089
Rp3090
aa(lp3091
g418
(g422
S'"\x00\x00\x00'
p3092
tp3093
Rp3094
ag418
(g422
S'\x00\x02\x00\x00'
p3095
tp3096
Rp3097
aa(lp3098
g418
(g422
S'<\x00\x00\x00'
p3099
tp3100
Rp3101
ag418
(g422
S'\x00\x02\x00\x00'
p3102
tp3103
Rp3104
aa(lp3105
g418
(g422
S'W\x00\x00\x00'
p3106
tp3107
Rp3108
ag418
(g422
S'\x00\x02\x00\x00'
p3109
tp3110
Rp3111
aa(lp3112
g418
(g422
S'r\x00\x00\x00'
p3113
tp3114
Rp3115
ag418
(g422
S'\xfe\x01\x00\x00'
p3116
tp3117
Rp3118
aa(lp3119
g418
(g422
S'\x8c\x00\x00\x00'
p3120
tp3121
Rp3122
ag418
(g422
S'\x00\x02\x00\x00'
p3123
tp3124
Rp3125
aa(lp3126
g418
(g422
S'\xa7\x00\x00\x00'
p3127
tp3128
Rp3129
ag418
(g422
S'\x00\x02\x00\x00'
p3130
tp3131
Rp3132
aa(lp3133
g418
(g422
S'\xc2\x00\x00\x00'
p3134
tp3135
Rp3136
ag418
(g422
S'\x00\x02\x00\x00'
p3137
tp3138
Rp3139
aa(lp3140
g418
(g422
S'\xdc\x00\x00\x00'
p3141
tp3142
Rp3143
ag418
(g422
S'\x00\x02\x00\x00'
p3144
tp3145
Rp3146
aa(lp3147
g418
(g422
S'\xf5\x00\x00\x00'
p3148
tp3149
Rp3150
ag418
(g422
S'\xfe\x01\x00\x00'
p3151
tp3152
Rp3153
aa(lp3154
g418
(g422
S'\x12\x01\x00\x00'
p3155
tp3156
Rp3157
ag418
(g422
S'\xfe\x01\x00\x00'
p3158
tp3159
Rp3160
aa(lp3161
g418
(g422
S',\x01\x00\x00'
p3162
tp3163
Rp3164
ag418
(g422
S'\xff\x01\x00\x00'
p3165
tp3166
Rp3167
aa(lp3168
g418
(g422
S'F\x01\x00\x00'
p3169
tp3170
Rp3171
ag418
(g422
S'\xff\x01\x00\x00'
p3172
tp3173
Rp3174
aa(lp3175
g418
(g422
S'b\x01\x00\x00'
p3176
tp3177
Rp3178
ag418
(g422
S'\x00\x02\x00\x00'
p3179
tp3180
Rp3181
aa(lp3182
g418
(g422
S'{\x01\x00\x00'
p3183
tp3184
Rp3185
ag418
(g422
S'\x00\x02\x00\x00'
p3186
tp3187
Rp3188
aa(lp3189
g418
(g422
S'\x96\x01\x00\x00'
p3190
tp3191
Rp3192
ag418
(g422
S'\xfd\x01\x00\x00'
p3193
tp3194
Rp3195
aa(lp3196
g418
(g422
S'\xb1\x01\x00\x00'
p3197
tp3198
Rp3199
ag418
(g422
S'\xff\x01\x00\x00'
p3200
tp3201
Rp3202
aa(lp3203
g418
(g422
S'\xca\x01\x00\x00'
p3204
tp3205
Rp3206
ag418
(g422
S'\xff\x01\x00\x00'
p3207
tp3208
Rp3209
aa(lp3210
g418
(g422
S'\xe6\x01\x00\x00'
p3211
tp3212
Rp3213
ag418
(g422
S'\x00\x02\x00\x00'
p3214
tp3215
Rp3216
aa(lp3217
g418
(g422
S'\xff\x01\x00\x00'
p3218
tp3219
Rp3220
ag418
(g422
S'\x00\x02\x00\x00'
p3221
tp3222
Rp3223
aasS'units'
p3224
S'seconds'
p3225
sS'identifier'
p3226
S'matmult2'
p3227
sS'os'
p3228
S'CYGWIN_NT-6.1-1.7.32-0.274-5-3-x86_64-64bit'
p3229
s.