(dp0
S'results'
p1
(lp2
(lp3
F1.28e-06
aa(lp4
F1.116e-05
aa(lp5
F8.45e-06
aa(lp6
F1.166e-05
aa(lp7
F1.548e-05
aa(lp8
F1.897e-05
aa(lp9
F0.00011772
aa(lp10
F7.066e-05
aa(lp11
F2.969e-05
aa(lp12
F3.329e-05
aa(lp13
F3.688e-05
aa(lp14
F4.044e-05
aa(lp15
F4.441e-05
aa(lp16
F4.794e-05
aa(lp17
F5.206e-05
aa(lp18
F5.474e-05
aa(lp19
F5.862e-05
aa(lp20
F6.329e-05
aa(lp21
F6.621e-05
aa(lp22
F6.908e-05
aa(lp23
F7.267e-05
aa(lp24
F7.697e-05
aa(lp25
F8.077e-05
aa(lp26
F4.408e-05
aa(lp27
F0.00116883
aa(lp28
F0.00174623
aa(lp29
F0.00296721
aa(lp30
F0.00450315
aa(lp31
F0.0042224
aa(lp32
F0.00561309
aa(lp33
F0.00706534
aa(lp34
F0.00744989
aa(lp35
F0.00829567
aa(lp36
F0.01005224
aa(lp37
F0.01010659
aa(lp38
F0.01205879
aa(lp39
F0.01200059
aa(lp40
F0.01408865
aa(lp41
F0.01615845
aa(lp42
F0.0175089
aa(lp43
F0.01705992
aa(lp44
F0.01797655
aa(lp45
F0.01748598
aa(lp46
F0.02020308
aa(lp47
F0.01940666
aa(lp48
F0.02394199
aa(lp49
F0.00016398
aa(lp50
F0.00408938
aa(lp51
F0.00782865
aa(lp52
F0.01206194
aa(lp53
F0.01471137
aa(lp54
F0.01826314
aa(lp55
F0.02290627
aa(lp56
F0.02458497
aa(lp57
F0.0302487
aa(lp58
F0.0325989
aa(lp59
F0.03499079
aa(lp60
F0.04345999
aa(lp61
F0.04714741
aa(lp62
F0.05195746
aa(lp63
F0.05572157
aa(lp64
F0.05717762
aa(lp65
F0.05822455
aa(lp66
F0.06204109
aa(lp67
F0.07079298
aa(lp68
F0.06953241
aa(lp69
F0.07613934
aa(lp70
F0.08427838
aa(lp71
F0.08282461
aa(lp72
F0.00035994
aa(lp73
F0.00861142
aa(lp74
F0.01800165
aa(lp75
F0.02567197
aa(lp76
F0.03494282
aa(lp77
F0.04423145
aa(lp78
F0.05040538
aa(lp79
F0.06077609
aa(lp80
F0.06365517
aa(lp81
F0.07335107
aa(lp82
F0.08126178
aa(lp83
F0.08971668
aa(lp84
F0.10058509
aa(lp85
F0.11274984
aa(lp86
F0.12129515
aa(lp87
F0.12543305
aa(lp88
F0.13749423
aa(lp89
F0.14712103
aa(lp90
F0.15136653
aa(lp91
F0.16352452
aa(lp92
F0.17275941
aa(lp93
F0.17125095
aa(lp94
F0.19554686
aa(lp95
F0.00129654
aa(lp96
F0.01620639
aa(lp97
F0.03114958
aa(lp98
F0.04603699
aa(lp99
F0.06061995
aa(lp100
F0.07501474
aa(lp101
F0.09245868
aa(lp102
F0.1060852
aa(lp103
F0.12060451
aa(lp104
F0.12945502
aa(lp105
F0.15165753
aa(lp106
F0.16528108
aa(lp107
F0.18179721
aa(lp108
F0.19563568
aa(lp109
F0.20217391
aa(lp110
F0.2264272
aa(lp111
F0.24125576
aa(lp112
F0.25322271
aa(lp113
F0.27186146
aa(lp114
F0.28878087
aa(lp115
F0.31039302
aa(lp116
F0.31433229
aa(lp117
F0.32975989
aa(lp118
F0.00098655
aa(lp119
F0.02264116
aa(lp120
F0.05140764
aa(lp121
F0.07305848
aa(lp122
F0.10515998
aa(lp123
F0.11687069
aa(lp124
F0.14319697
aa(lp125
F0.18134096
aa(lp126
F0.18257946
aa(lp127
F0.23311832
aa(lp128
F0.22380486
aa(lp129
F0.25245814
aa(lp130
F0.27017328
aa(lp131
F0.29952681
aa(lp132
F0.36699055
aa(lp133
F0.34496264
aa(lp134
F0.38066444
aa(lp135
F0.40927228
aa(lp136
F0.41445774
aa(lp137
F0.43401375
aa(lp138
F0.47339438
aa(lp139
F0.49643942
aa(lp140
F0.57366402
aa(lp141
F0.00145726
aa(lp142
F0.03654158
aa(lp143
F0.06621347
aa(lp144
F0.10203786
aa(lp145
F0.13405168
aa(lp146
F0.16969605
aa(lp147
F0.2240624
aa(lp148
F0.23741457
aa(lp149
F0.26897945
aa(lp150
F0.30180374
aa(lp151
F0.33596878
aa(lp152
F0.3755277
aa(lp153
F0.40878581
aa(lp154
F0.43951222
aa(lp155
F0.46657958
aa(lp156
F0.55442412
aa(lp157
F0.53275339
aa(lp158
F0.55331469
aa(lp159
F0.60387898
aa(lp160
F0.63085632
aa(lp161
F0.73664159
aa(lp162
F0.68338713
aa(lp163
F0.74515802
aa(lp164
F0.00194966
aa(lp165
F0.04423633
aa(lp166
F0.09206514
aa(lp167
F0.15315714
aa(lp168
F0.17946558
aa(lp169
F0.22924992
aa(lp170
F0.27022995
aa(lp171
F0.31348799
aa(lp172
F0.36398433
aa(lp173
F0.40635844
aa(lp174
F0.50991039
aa(lp175
F0.50592522
aa(lp176
F0.53894723
aa(lp177
F0.57848693
aa(lp178
F0.70809441
aa(lp179
F0.67996138
aa(lp180
F0.72752217
aa(lp181
F0.75980739
aa(lp182
F0.81577959
aa(lp183
F0.85151777
aa(lp184
F0.91007624
aa(lp185
F0.93752413
aa(lp186
F0.9970375
aa(lp187
F0.00281608
aa(lp188
F0.06432066
aa(lp189
F0.11678941
aa(lp190
F0.18038937
aa(lp191
F0.23910507
aa(lp192
F0.32894613
aa(lp193
F0.34928822
aa(lp194
F0.4174971
aa(lp195
F0.47697511
aa(lp196
F0.58696935
aa(lp197
F0.59694737
aa(lp198
F0.71716388
aa(lp199
F0.71437095
aa(lp200
F0.77807743
aa(lp201
F0.91301051
aa(lp202
F0.86702384
aa(lp203
F1.043184
aa(lp204
F1.02202642
aa(lp205
F1.07438934
aa(lp206
F1.14609244
aa(lp207
F1.1868457
aa(lp208
F1.37022165
aa(lp209
F1.29154505
aa(lp210
F0.00329945
aa(lp211
F0.07906006
aa(lp212
F0.15105189
aa(lp213
F0.24454985
aa(lp214
F0.30991917
aa(lp215
F0.41122116
aa(lp216
F0.46081973
aa(lp217
F0.53686853
aa(lp218
F0.60844326
aa(lp219
F0.68558446
aa(lp220
F0.76314714
aa(lp221
F0.84223368
aa(lp222
F0.88905022
aa(lp223
F0.99308902
aa(lp224
F1.04181483
aa(lp225
F1.15006392
aa(lp226
F1.3408778
aa(lp227
F1.3057089
aa(lp228
F1.33546181
aa(lp229
F1.40272515
aa(lp230
F1.47103485
aa(lp231
F1.60209025
aa(lp232
F1.67485099
aa(lp233
F0.00427435
aa(lp234
F0.09352509
aa(lp235
F0.20518728
aa(lp236
F0.29052231
aa(lp237
F0.40242383
aa(lp238
F0.4970323
aa(lp239
F0.56645746
aa(lp240
F0.69789164
aa(lp241
F0.80201152
aa(lp242
F0.90784807
aa(lp243
F0.98376023
aa(lp244
F1.09636992
aa(lp245
F1.13299999
aa(lp246
F1.2830586
aa(lp247
F1.27950182
aa(lp248
F1.41274619
aa(lp249
F1.59573879
aa(lp250
F1.60491625
aa(lp251
F1.79590832
aa(lp252
F1.79475963
aa(lp253
F1.98528261
aa(lp254
F2.0924914
aa(lp255
F2.08073395
aa(lp256
F0.00538045
aa(lp257
F0.12223339
aa(lp258
F0.25801111
aa(lp259
F0.3712576
aa(lp260
F0.46580509
aa(lp261
F0.56639908
aa(lp262
F0.67012165
aa(lp263
F0.79275628
aa(lp264
F0.91282038
aa(lp265
F1.03032301
aa(lp266
F1.24302202
aa(lp267
F1.22780181
aa(lp268
F1.35929317
aa(lp269
F1.43200776
aa(lp270
F1.60192392
aa(lp271
F1.71154499
aa(lp272
F1.7839911
aa(lp273
F2.12928191
aa(lp274
F2.05202464
aa(lp275
F2.11130222
aa(lp276
F2.27333334
aa(lp277
F2.31391805
aa(lp278
F2.44913071
aa(lp279
F0.00591194
aa(lp280
F0.14414177
aa(lp281
F0.2907233
aa(lp282
F0.42277756
aa(lp283
F0.569246
aa(lp284
F0.67625867
aa(lp285
F0.80557708
aa(lp286
F0.97939845
aa(lp287
F1.0709488
aa(lp288
F1.27000809
aa(lp289
F1.3432272
aa(lp290
F1.45773464
aa(lp291
F1.68473283
aa(lp292
F1.73591452
aa(lp293
F1.96201879
aa(lp294
F1.99286213
aa(lp295
F2.12276374
aa(lp296
F2.27786935
aa(lp297
F2.46781853
aa(lp298
F2.65959031
aa(lp299
F2.67479659
aa(lp300
F2.80628735
aa(lp301
F3.00809176
aa(lp302
F0.00686699
aa(lp303
F0.17141282
aa(lp304
F0.32869543
aa(lp305
F0.48975485
aa(lp306
F0.64701908
aa(lp307
F0.81331054
aa(lp308
F0.99986228
aa(lp309
F1.15245211
aa(lp310
F1.29537418
aa(lp311
F1.46778741
aa(lp312
F1.63154802
aa(lp313
F1.78461708
aa(lp314
F1.97766853
aa(lp315
F2.12519848
aa(lp316
F2.29120607
aa(lp317
F2.44437194
aa(lp318
F2.54205188
aa(lp319
F2.77789795
aa(lp320
F2.94292772
aa(lp321
F3.02811487
aa(lp322
F3.25060801
aa(lp323
F3.34413618
aa(lp324
F3.5852082
aa(lp325
F0.00838774
aa(lp326
F0.20292635
aa(lp327
F0.37940805
aa(lp328
F0.60135548
aa(lp329
F0.77498308
aa(lp330
F0.96204648
aa(lp331
F1.11730366
aa(lp332
F1.320219
aa(lp333
F1.53318013
aa(lp334
F1.73605693
aa(lp335
F1.9116176
aa(lp336
F2.15977178
aa(lp337
F2.25377591
aa(lp338
F2.56268196
aa(lp339
F2.75268351
aa(lp340
F2.92341467
aa(lp341
F3.14984974
aa(lp342
F3.3136729
aa(lp343
F3.37492731
aa(lp344
F3.55599363
aa(lp345
F3.8280265
aa(lp346
F3.9567107
aa(lp347
F4.33523653
aa(lp348
F0.00950952
aa(lp349
F0.240979
aa(lp350
F0.43718233
aa(lp351
F0.67538298
aa(lp352
F0.87479102
aa(lp353
F1.05149717
aa(lp354
F1.34304841
aa(lp355
F1.46623338
aa(lp356
F1.69518799
aa(lp357
F2.00237284
aa(lp358
F2.23238496
aa(lp359
F2.31911542
aa(lp360
F2.66570644
aa(lp361
F2.84547085
aa(lp362
F3.1415591
aa(lp363
F3.15976477
aa(lp364
F3.54627993
aa(lp365
F3.78235776
aa(lp366
F3.81626392
aa(lp367
F4.22728539
aa(lp368
F4.44391267
aa(lp369
F4.67581158
aa(lp370
F4.92851972
aa(lp371
F0.01132168
aa(lp372
F0.26521749
aa(lp373
F0.52020926
aa(lp374
F0.78463951
aa(lp375
F1.05110102
aa(lp376
F1.25206975
aa(lp377
F1.49328361
aa(lp378
F1.85293172
aa(lp379
F2.09793214
aa(lp380
F2.3676674
aa(lp381
F2.62743315
aa(lp382
F2.82143536
aa(lp383
F3.16536747
aa(lp384
F3.17059204
aa(lp385
F3.71628275
aa(lp386
F3.95977703
aa(lp387
F4.23241592
aa(lp388
F4.52510453
aa(lp389
F4.71182549
aa(lp390
F4.81587393
aa(lp391
F5.2824824
aa(lp392
F5.35057314
aa(lp393
F5.77710344
aa(lp394
F0.0125276
aa(lp395
F0.31347575
aa(lp396
F0.56434361
aa(lp397
F0.87722635
aa(lp398
F1.16246711
aa(lp399
F1.35407765
aa(lp400
F1.7406844
aa(lp401
F2.03646014
aa(lp402
F2.31434205
aa(lp403
F2.62356433
aa(lp404
F2.92149914
aa(lp405
F3.19620063
aa(lp406
F3.43509954
aa(lp407
F3.48802153
aa(lp408
F4.07954798
aa(lp409
F4.00612535
aa(lp410
F4.30139617
aa(lp411
F4.56345173
aa(lp412
F4.81962731
aa(lp413
F5.12832476
aa(lp414
F5.79009617
aa(lp415
F5.64578555
aa(lp416
F6.38133383
aa(lp417
F0.01422873
aa(lp418
F0.35724237
aa(lp419
F0.67900386
aa(lp420
F0.94101676
aa(lp421
F1.19723575
aa(lp422
F1.65534676
aa(lp423
F1.9726796
aa(lp424
F2.33622273
aa(lp425
F2.66542251
aa(lp426
F2.85791233
aa(lp427
F3.31088292
aa(lp428
F3.49115806
aa(lp429
F3.97693222
aa(lp430
F4.30290925
aa(lp431
F4.45266809
aa(lp432
F4.48602877
aa(lp433
F5.31232602
aa(lp434
F5.38211978
aa(lp435
F5.97169963
aa(lp436
F6.01963888
aa(lp437
F6.32347177
aa(lp438
F6.29197796
aa(lp439
F7.29978015
aa(lp440
F0.01602188
aa(lp441
F0.37516753
aa(lp442
F0.73486853
aa(lp443
F1.0779538
aa(lp444
F1.34666594
aa(lp445
F1.67236442
aa(lp446
F1.98980149
aa(lp447
F2.62123984
aa(lp448
F2.97524112
aa(lp449
F3.31047864
aa(lp450
F3.62125753
aa(lp451
F4.10595198
aa(lp452
F4.4407858
aa(lp453
F4.35938159
aa(lp454
F4.63755808
aa(lp455
F5.61210017
aa(lp456
F5.95109715
aa(lp457
F6.31958356
aa(lp458
F6.71842908
aa(lp459
F7.05021745
aa(lp460
F6.66705083
aa(lp461
F7.81069111
aa(lp462
F7.75591183
aa(lp463
F0.01763498
aa(lp464
F0.41912296
aa(lp465
F0.81246301
aa(lp466
F1.2253881
aa(lp467
F1.67644905
aa(lp468
F2.00773172
aa(lp469
F2.44699272
aa(lp470
F2.86153055
aa(lp471
F3.25523018
aa(lp472
F3.64789388
aa(lp473
F4.04500735
aa(lp474
F4.52972619
aa(lp475
F4.84863937
aa(lp476
F5.26159288
aa(lp477
F5.7313519
aa(lp478
F6.09858829
aa(lp479
F6.50238549
aa(lp480
F6.92180599
aa(lp481
F7.30799705
aa(lp482
F7.72109217
aa(lp483
F8.20244666
aa(lp484
F8.57830512
aa(lp485
F8.93276411
aa(lp486
F0.01962325
aa(lp487
F0.40206662
aa(lp488
F0.80306549
aa(lp489
F1.31993573
aa(lp490
F1.60993587
aa(lp491
F2.14852237
aa(lp492
F2.61446407
aa(lp493
F3.20386492
aa(lp494
F3.25235637
aa(lp495
F3.66105395
aa(lp496
F4.33175802
aa(lp497
F4.73102939
aa(lp498
F5.14036756
aa(lp499
F5.6020165
aa(lp500
F6.04284705
aa(lp501
F6.45932793
aa(lp502
F6.87869144
aa(lp503
F7.35774733
aa(lp504
F7.74921919
aa(lp505
F8.21208354
aa(lp506
F8.61132761
aa(lp507
F9.05258159
aa(lp508
F9.47527585
aa(lp509
F0.01958009
aa(lp510
F0.51365455
aa(lp511
F1.03096595
aa(lp512
F1.51799838
aa(lp513
F2.00918937
aa(lp514
F2.30567261
aa(lp515
F2.7135289
aa(lp516
F3.524443
aa(lp517
F3.6374466
aa(lp518
F4.46881703
aa(lp519
F4.5657238
aa(lp520
F5.50437012
aa(lp521
F5.9983336
aa(lp522
F6.49271258
aa(lp523
F6.34129987
aa(lp524
F7.48731747
aa(lp525
F7.96662625
aa(lp526
F8.44199834
aa(lp527
F8.97196132
aa(lp528
F9.52105129
aa(lp529
F9.92687655
aa(lp530
F10.43017928
aa(lp531
F11.00257746
aasS'month'
p532
I10
sS'argument tags'
p533
(lp534
S'M'
p535
aS'N'
p536
asS'year'
p537
I2014
sS'arch'
p538
S'x86_64'
p539
sS'day'
p540
I22
sS'result tags'
p541
(lp542
S'Run Time'
p543
asS'arguments'
p544
(lp545
(lp546
cnumpy.core.multiarray
scalar
p547
(cnumpy
dtype
p548
(S'i4'
p549
I0
I1
tp550
Rp551
(I3
S'<'
p552
NNNI-1
I-1
I0
tp553
bS'\x02\x00\x00\x00'
p554
tp555
Rp556
ag547
(g551
S'\x01\x00\x00\x00'
p557
tp558
Rp559
aa(lp560
g547
(g551
S'\x18\x00\x00\x00'
p561
tp562
Rp563
ag547
(g551
S'\x02\x00\x00\x00'
p564
tp565
Rp566
aa(lp567
g547
(g551
S'0\x00\x00\x00'
p568
tp569
Rp570
ag547
(g551
S'\x01\x00\x00\x00'
p571
tp572
Rp573
aa(lp574
g547
(g551
S'E\x00\x00\x00'
p575
tp576
Rp577
ag547
(g551
S'\x01\x00\x00\x00'
p578
tp579
Rp580
aa(lp581
g547
(g551
S']\x00\x00\x00'
p582
tp583
Rp584
ag547
(g551
S'\x01\x00\x00\x00'
p585
tp586
Rp587
aa(lp588
g547
(g551
S't\x00\x00\x00'
p589
tp590
Rp591
ag547
(g551
S'\x01\x00\x00\x00'
p592
tp593
Rp594
aa(lp595
g547
(g551
S'\x8a\x00\x00\x00'
p596
tp597
Rp598
ag547
(g551
S'\x03\x00\x00\x00'
p599
tp600
Rp601
aa(lp602
g547
(g551
S'\xa3\x00\x00\x00'
p603
tp604
Rp605
ag547
(g551
S'\x02\x00\x00\x00'
p606
tp607
Rp608
aa(lp609
g547
(g551
S'\xb9\x00\x00\x00'
p610
tp611
Rp612
ag547
(g551
S'\x01\x00\x00\x00'
p613
tp614
Rp615
aa(lp616
g547
(g551
S'\xd0\x00\x00\x00'
p617
tp618
Rp619
ag547
(g551
S'\x01\x00\x00\x00'
p620
tp621
Rp622
aa(lp623
g547
(g551
S'\xe8\x00\x00\x00'
p624
tp625
Rp626
ag547
(g551
S'\x01\x00\x00\x00'
p627
tp628
Rp629
aa(lp630
g547
(g551
S'\x00\x01\x00\x00'
p631
tp632
Rp633
ag547
(g551
S'\x01\x00\x00\x00'
p634
tp635
Rp636
aa(lp637
g547
(g551
S'\x16\x01\x00\x00'
p638
tp639
Rp640
ag547
(g551
S'\x01\x00\x00\x00'
p641
tp642
Rp643
aa(lp644
g547
(g551
S'/\x01\x00\x00'
p645
tp646
Rp647
ag547
(g551
S'\x01\x00\x00\x00'
p648
tp649
Rp650
aa(lp651
g547
(g551
S'E\x01\x00\x00'
p652
tp653
Rp654
ag547
(g551
S'\x01\x00\x00\x00'
p655
tp656
Rp657
aa(lp658
g547
(g551
S'^\x01\x00\x00'
p659
tp660
Rp661
ag547
(g551
S'\x01\x00\x00\x00'
p662
tp663
Rp664
aa(lp665
g547
(g551
S't\x01\x00\x00'
p666
tp667
Rp668
ag547
(g551
S'\x01\x00\x00\x00'
p669
tp670
Rp671
aa(lp672
g547
(g551
S'\x8a\x01\x00\x00'
p673
tp674
Rp675
ag547
(g551
S'\x01\x00\x00\x00'
p676
tp677
Rp678
aa(lp679
g547
(g551
S'\xa2\x01\x00\x00'
p680
tp681
Rp682
ag547
(g551
S'\x01\x00\x00\x00'
p683
tp684
Rp685
aa(lp686
g547
(g551
S'\xb9\x01\x00\x00'
p687
tp688
Rp689
ag547
(g551
S'\x01\x00\x00\x00'
p690
tp691
Rp692
aa(lp693
g547
(g551
S'\xd0\x01\x00\x00'
p694
tp695
Rp696
ag547
(g551
S'\x01\x00\x00\x00'
p697
tp698
Rp699
aa(lp700
g547
(g551
S'\xe9\x01\x00\x00'
p701
tp702
Rp703
ag547
(g551
S'\x01\x00\x00\x00'
p704
tp705
Rp706
aa(lp707
g547
(g551
S'\xff\x01\x00\x00'
p708
tp709
Rp710
ag547
(g551
S'\x01\x00\x00\x00'
p711
tp712
Rp713
aa(lp714
g547
(g551
S'\x01\x00\x00\x00'
p715
tp716
Rp717
ag547
(g551
S'\x18\x00\x00\x00'
p718
tp719
Rp720
aa(lp721
g547
(g551
S'\x19\x00\x00\x00'
p722
tp723
Rp724
ag547
(g551
S'\x19\x00\x00\x00'
p725
tp726
Rp727
aa(lp728
g547
(g551
S'0\x00\x00\x00'
p729
tp730
Rp731
ag547
(g551
S'\x16\x00\x00\x00'
p732
tp733
Rp734
aa(lp735
g547
(g551
S'E\x00\x00\x00'
p736
tp737
Rp738
ag547
(g551
S'\x18\x00\x00\x00'
p739
tp740
Rp741
aa(lp742
g547
(g551
S'`\x00\x00\x00'
p743
tp744
Rp745
ag547
(g551
S'\x19\x00\x00\x00'
p746
tp747
Rp748
aa(lp749
g547
(g551
S't\x00\x00\x00'
p750
tp751
Rp752
ag547
(g551
S'\x16\x00\x00\x00'
p753
tp754
Rp755
aa(lp756
g547
(g551
S'\x8d\x00\x00\x00'
p757
tp758
Rp759
ag547
(g551
S'\x17\x00\x00\x00'
p760
tp761
Rp762
aa(lp763
g547
(g551
S'\xa5\x00\x00\x00'
p764
tp765
Rp766
ag547
(g551
S'\x18\x00\x00\x00'
p767
tp768
Rp769
aa(lp770
g547
(g551
S'\xba\x00\x00\x00'
p771
tp772
Rp773
ag547
(g551
S'\x17\x00\x00\x00'
p774
tp775
Rp776
aa(lp777
g547
(g551
S'\xd1\x00\x00\x00'
p778
tp779
Rp780
ag547
(g551
S'\x17\x00\x00\x00'
p781
tp782
Rp783
aa(lp784
g547
(g551
S'\xe9\x00\x00\x00'
p785
tp786
Rp787
ag547
(g551
S'\x18\x00\x00\x00'
p788
tp789
Rp790
aa(lp791
g547
(g551
S'\x00\x01\x00\x00'
p792
tp793
Rp794
ag547
(g551
S'\x17\x00\x00\x00'
p795
tp796
Rp797
aa(lp798
g547
(g551
S'\x16\x01\x00\x00'
p799
tp800
Rp801
ag547
(g551
S'\x18\x00\x00\x00'
p802
tp803
Rp804
aa(lp805
g547
(g551
S'/\x01\x00\x00'
p806
tp807
Rp808
ag547
(g551
S'\x17\x00\x00\x00'
p809
tp810
Rp811
aa(lp812
g547
(g551
S'H\x01\x00\x00'
p813
tp814
Rp815
ag547
(g551
S'\x18\x00\x00\x00'
p816
tp817
Rp818
aa(lp819
g547
(g551
S'\\\x01\x00\x00'
p820
tp821
Rp822
ag547
(g551
S'\x19\x00\x00\x00'
p823
tp824
Rp825
aa(lp826
g547
(g551
S'u\x01\x00\x00'
p827
tp828
Rp829
ag547
(g551
S'\x19\x00\x00\x00'
p830
tp831
Rp832
aa(lp833
g547
(g551
S'\x8b\x01\x00\x00'
p834
tp835
Rp836
ag547
(g551
S'\x18\x00\x00\x00'
p837
tp838
Rp839
aa(lp840
g547
(g551
S'\xa3\x01\x00\x00'
p841
tp842
Rp843
ag547
(g551
S'\x18\x00\x00\x00'
p844
tp845
Rp846
aa(lp847
g547
(g551
S'\xb9\x01\x00\x00'
p848
tp849
Rp850
ag547
(g551
S'\x17\x00\x00\x00'
p851
tp852
Rp853
aa(lp854
g547
(g551
S'\xd2\x01\x00\x00'
p855
tp856
Rp857
ag547
(g551
S'\x18\x00\x00\x00'
p858
tp859
Rp860
aa(lp861
g547
(g551
S'\xe8\x01\x00\x00'
p862
tp863
Rp864
ag547
(g551
S'\x17\x00\x00\x00'
p865
tp866
Rp867
aa(lp868
g547
(g551
S'\x00\x02\x00\x00'
p869
tp870
Rp871
ag547
(g551
S'\x19\x00\x00\x00'
p872
tp873
Rp874
aa(lp875
g547
(g551
S'\x01\x00\x00\x00'
p876
tp877
Rp878
ag547
(g551
S'/\x00\x00\x00'
p879
tp880
Rp881
aa(lp882
g547
(g551
S'\x19\x00\x00\x00'
p883
tp884
Rp885
ag547
(g551
S'/\x00\x00\x00'
p886
tp887
Rp888
aa(lp889
g547
(g551
S'.\x00\x00\x00'
p890
tp891
Rp892
ag547
(g551
S'0\x00\x00\x00'
p893
tp894
Rp895
aa(lp896
g547
(g551
S'G\x00\x00\x00'
p897
tp898
Rp899
ag547
(g551
S'0\x00\x00\x00'
p900
tp901
Rp902
aa(lp903
g547
(g551
S'^\x00\x00\x00'
p904
tp905
Rp906
ag547
(g551
S'.\x00\x00\x00'
p907
tp908
Rp909
aa(lp910
g547
(g551
S'u\x00\x00\x00'
p911
tp912
Rp913
ag547
(g551
S'.\x00\x00\x00'
p914
tp915
Rp916
aa(lp917
g547
(g551
S'\x8c\x00\x00\x00'
p918
tp919
Rp920
ag547
(g551
S'/\x00\x00\x00'
p921
tp922
Rp923
aa(lp924
g547
(g551
S'\xa3\x00\x00\x00'
p925
tp926
Rp927
ag547
(g551
S'-\x00\x00\x00'
p928
tp929
Rp930
aa(lp931
g547
(g551
S'\xba\x00\x00\x00'
p932
tp933
Rp934
ag547
(g551
S'/\x00\x00\x00'
p935
tp936
Rp937
aa(lp938
g547
(g551
S'\xd1\x00\x00\x00'
p939
tp940
Rp941
ag547
(g551
S'.\x00\x00\x00'
p942
tp943
Rp944
aa(lp945
g547
(g551
S'\xe9\x00\x00\x00'
p946
tp947
Rp948
ag547
(g551
S'-\x00\x00\x00'
p949
tp950
Rp951
aa(lp952
g547
(g551
S'\x00\x01\x00\x00'
p953
tp954
Rp955
ag547
(g551
S'0\x00\x00\x00'
p956
tp957
Rp958
aa(lp959
g547
(g551
S'\x17\x01\x00\x00'
p960
tp961
Rp962
ag547
(g551
S'0\x00\x00\x00'
p963
tp964
Rp965
aa(lp966
g547
(g551
S'0\x01\x00\x00'
p967
tp968
Rp969
ag547
(g551
S'0\x00\x00\x00'
p970
tp971
Rp972
aa(lp973
g547
(g551
S'F\x01\x00\x00'
p974
tp975
Rp976
ag547
(g551
S'0\x00\x00\x00'
p977
tp978
Rp979
aa(lp980
g547
(g551
S']\x01\x00\x00'
p981
tp982
Rp983
ag547
(g551
S'/\x00\x00\x00'
p984
tp985
Rp986
aa(lp987
g547
(g551
S'u\x01\x00\x00'
p988
tp989
Rp990
ag547
(g551
S'.\x00\x00\x00'
p991
tp992
Rp993
aa(lp994
g547
(g551
S'\x8b\x01\x00\x00'
p995
tp996
Rp997
ag547
(g551
S'.\x00\x00\x00'
p998
tp999
Rp1000
aa(lp1001
g547
(g551
S'\xa2\x01\x00\x00'
p1002
tp1003
Rp1004
ag547
(g551
S'0\x00\x00\x00'
p1005
tp1006
Rp1007
aa(lp1008
g547
(g551
S'\xba\x01\x00\x00'
p1009
tp1010
Rp1011
ag547
(g551
S'.\x00\x00\x00'
p1012
tp1013
Rp1014
aa(lp1015
g547
(g551
S'\xd1\x01\x00\x00'
p1016
tp1017
Rp1018
ag547
(g551
S'/\x00\x00\x00'
p1019
tp1020
Rp1021
aa(lp1022
g547
(g551
S'\xe8\x01\x00\x00'
p1023
tp1024
Rp1025
ag547
(g551
S'0\x00\x00\x00'
p1026
tp1027
Rp1028
aa(lp1029
g547
(g551
S'\xff\x01\x00\x00'
p1030
tp1031
Rp1032
ag547
(g551
S'/\x00\x00\x00'
p1033
tp1034
Rp1035
aa(lp1036
g547
(g551
S'\x01\x00\x00\x00'
p1037
tp1038
Rp1039
ag547
(g551
S'F\x00\x00\x00'
p1040
tp1041
Rp1042
aa(lp1043
g547
(g551
S'\x18\x00\x00\x00'
p1044
tp1045
Rp1046
ag547
(g551
S'F\x00\x00\x00'
p1047
tp1048
Rp1049
aa(lp1050
g547
(g551
S'/\x00\x00\x00'
p1051
tp1052
Rp1053
ag547
(g551
S'H\x00\x00\x00'
p1054
tp1055
Rp1056
aa(lp1057
g547
(g551
S'G\x00\x00\x00'
p1058
tp1059
Rp1060
ag547
(g551
S'F\x00\x00\x00'
p1061
tp1062
Rp1063
aa(lp1064
g547
(g551
S'^\x00\x00\x00'
p1065
tp1066
Rp1067
ag547
(g551
S'G\x00\x00\x00'
p1068
tp1069
Rp1070
aa(lp1071
g547
(g551
S'w\x00\x00\x00'
p1072
tp1073
Rp1074
ag547
(g551
S'G\x00\x00\x00'
p1075
tp1076
Rp1077
aa(lp1078
g547
(g551
S'\x8c\x00\x00\x00'
p1079
tp1080
Rp1081
ag547
(g551
S'F\x00\x00\x00'
p1082
tp1083
Rp1084
aa(lp1085
g547
(g551
S'\xa3\x00\x00\x00'
p1086
tp1087
Rp1088
ag547
(g551
S'G\x00\x00\x00'
p1089
tp1090
Rp1091
aa(lp1092
g547
(g551
S'\xba\x00\x00\x00'
p1093
tp1094
Rp1095
ag547
(g551
S'D\x00\x00\x00'
p1096
tp1097
Rp1098
aa(lp1099
g547
(g551
S'\xd1\x00\x00\x00'
p1100
tp1101
Rp1102
ag547
(g551
S'E\x00\x00\x00'
p1103
tp1104
Rp1105
aa(lp1106
g547
(g551
S'\xe9\x00\x00\x00'
p1107
tp1108
Rp1109
ag547
(g551
S'E\x00\x00\x00'
p1110
tp1111
Rp1112
aa(lp1113
g547
(g551
S'\x00\x01\x00\x00'
p1114
tp1115
Rp1116
ag547
(g551
S'E\x00\x00\x00'
p1117
tp1118
Rp1119
aa(lp1120
g547
(g551
S'\x17\x01\x00\x00'
p1121
tp1122
Rp1123
ag547
(g551
S'F\x00\x00\x00'
p1124
tp1125
Rp1126
aa(lp1127
g547
(g551
S'/\x01\x00\x00'
p1128
tp1129
Rp1130
ag547
(g551
S'G\x00\x00\x00'
p1131
tp1132
Rp1133
aa(lp1134
g547
(g551
S'G\x01\x00\x00'
p1135
tp1136
Rp1137
ag547
(g551
S'G\x00\x00\x00'
p1138
tp1139
Rp1140
aa(lp1141
g547
(g551
S'\\\x01\x00\x00'
p1142
tp1143
Rp1144
ag547
(g551
S'F\x00\x00\x00'
p1145
tp1146
Rp1147
aa(lp1148
g547
(g551
S't\x01\x00\x00'
p1149
tp1150
Rp1151
ag547
(g551
S'G\x00\x00\x00'
p1152
tp1153
Rp1154
aa(lp1155
g547
(g551
S'\x8b\x01\x00\x00'
p1156
tp1157
Rp1158
ag547
(g551
S'G\x00\x00\x00'
p1159
tp1160
Rp1161
aa(lp1162
g547
(g551
S'\xa3\x01\x00\x00'
p1163
tp1164
Rp1165
ag547
(g551
S'F\x00\x00\x00'
p1166
tp1167
Rp1168
aa(lp1169
g547
(g551
S'\xba\x01\x00\x00'
p1170
tp1171
Rp1172
ag547
(g551
S'G\x00\x00\x00'
p1173
tp1174
Rp1175
aa(lp1176
g547
(g551
S'\xd3\x01\x00\x00'
p1177
tp1178
Rp1179
ag547
(g551
S'G\x00\x00\x00'
p1180
tp1181
Rp1182
aa(lp1183
g547
(g551
S'\xe9\x01\x00\x00'
p1184
tp1185
Rp1186
ag547
(g551
S'E\x00\x00\x00'
p1187
tp1188
Rp1189
aa(lp1190
g547
(g551
S'\xff\x01\x00\x00'
p1191
tp1192
Rp1193
ag547
(g551
S'H\x00\x00\x00'
p1194
tp1195
Rp1196
aa(lp1197
g547
(g551
S'\x02\x00\x00\x00'
p1198
tp1199
Rp1200
ag547
(g551
S'^\x00\x00\x00'
p1201
tp1202
Rp1203
aa(lp1204
g547
(g551
S'\x19\x00\x00\x00'
p1205
tp1206
Rp1207
ag547
(g551
S']\x00\x00\x00'
p1208
tp1209
Rp1210
aa(lp1211
g547
(g551
S'0\x00\x00\x00'
p1212
tp1213
Rp1214
ag547
(g551
S'^\x00\x00\x00'
p1215
tp1216
Rp1217
aa(lp1218
g547
(g551
S'G\x00\x00\x00'
p1219
tp1220
Rp1221
ag547
(g551
S']\x00\x00\x00'
p1222
tp1223
Rp1224
aa(lp1225
g547
(g551
S'^\x00\x00\x00'
p1226
tp1227
Rp1228
ag547
(g551
S']\x00\x00\x00'
p1229
tp1230
Rp1231
aa(lp1232
g547
(g551
S't\x00\x00\x00'
p1233
tp1234
Rp1235
ag547
(g551
S']\x00\x00\x00'
p1236
tp1237
Rp1238
aa(lp1239
g547
(g551
S'\x8a\x00\x00\x00'
p1240
tp1241
Rp1242
ag547
(g551
S'_\x00\x00\x00'
p1243
tp1244
Rp1245
aa(lp1246
g547
(g551
S'\xa4\x00\x00\x00'
p1247
tp1248
Rp1249
ag547
(g551
S']\x00\x00\x00'
p1250
tp1251
Rp1252
aa(lp1253
g547
(g551
S'\xbb\x00\x00\x00'
p1254
tp1255
Rp1256
ag547
(g551
S']\x00\x00\x00'
p1257
tp1258
Rp1259
aa(lp1260
g547
(g551
S'\xd1\x00\x00\x00'
p1261
tp1262
Rp1263
ag547
(g551
S'\\\x00\x00\x00'
p1264
tp1265
Rp1266
aa(lp1267
g547
(g551
S'\xe8\x00\x00\x00'
p1268
tp1269
Rp1270
ag547
(g551
S']\x00\x00\x00'
p1271
tp1272
Rp1273
aa(lp1274
g547
(g551
S'\xff\x00\x00\x00'
p1275
tp1276
Rp1277
ag547
(g551
S'^\x00\x00\x00'
p1278
tp1279
Rp1280
aa(lp1281
g547
(g551
S'\x18\x01\x00\x00'
p1282
tp1283
Rp1284
ag547
(g551
S']\x00\x00\x00'
p1285
tp1286
Rp1287
aa(lp1288
g547
(g551
S'.\x01\x00\x00'
p1289
tp1290
Rp1291
ag547
(g551
S']\x00\x00\x00'
p1292
tp1293
Rp1294
aa(lp1295
g547
(g551
S'F\x01\x00\x00'
p1296
tp1297
Rp1298
ag547
(g551
S'\\\x00\x00\x00'
p1299
tp1300
Rp1301
aa(lp1302
g547
(g551
S'_\x01\x00\x00'
p1303
tp1304
Rp1305
ag547
(g551
S']\x00\x00\x00'
p1306
tp1307
Rp1308
aa(lp1309
g547
(g551
S't\x01\x00\x00'
p1310
tp1311
Rp1312
ag547
(g551
S']\x00\x00\x00'
p1313
tp1314
Rp1315
aa(lp1316
g547
(g551
S'\x8a\x01\x00\x00'
p1317
tp1318
Rp1319
ag547
(g551
S']\x00\x00\x00'
p1320
tp1321
Rp1322
aa(lp1323
g547
(g551
S'\xa3\x01\x00\x00'
p1324
tp1325
Rp1326
ag547
(g551
S']\x00\x00\x00'
p1327
tp1328
Rp1329
aa(lp1330
g547
(g551
S'\xba\x01\x00\x00'
p1331
tp1332
Rp1333
ag547
(g551
S']\x00\x00\x00'
p1334
tp1335
Rp1336
aa(lp1337
g547
(g551
S'\xd2\x01\x00\x00'
p1338
tp1339
Rp1340
ag547
(g551
S'_\x00\x00\x00'
p1341
tp1342
Rp1343
aa(lp1344
g547
(g551
S'\xea\x01\x00\x00'
p1345
tp1346
Rp1347
ag547
(g551
S']\x00\x00\x00'
p1348
tp1349
Rp1350
aa(lp1351
g547
(g551
S'\x00\x02\x00\x00'
p1352
tp1353
Rp1354
ag547
(g551
S'^\x00\x00\x00'
p1355
tp1356
Rp1357
aa(lp1358
g547
(g551
S'\x01\x00\x00\x00'
p1359
tp1360
Rp1361
ag547
(g551
S't\x00\x00\x00'
p1362
tp1363
Rp1364
aa(lp1365
g547
(g551
S'\x17\x00\x00\x00'
p1366
tp1367
Rp1368
ag547
(g551
S't\x00\x00\x00'
p1369
tp1370
Rp1371
aa(lp1372
g547
(g551
S'.\x00\x00\x00'
p1373
tp1374
Rp1375
ag547
(g551
S'u\x00\x00\x00'
p1376
tp1377
Rp1378
aa(lp1379
g547
(g551
S'F\x00\x00\x00'
p1380
tp1381
Rp1382
ag547
(g551
S'w\x00\x00\x00'
p1383
tp1384
Rp1385
aa(lp1386
g547
(g551
S'^\x00\x00\x00'
p1387
tp1388
Rp1389
ag547
(g551
S'u\x00\x00\x00'
p1390
tp1391
Rp1392
aa(lp1393
g547
(g551
S'v\x00\x00\x00'
p1394
tp1395
Rp1396
ag547
(g551
S't\x00\x00\x00'
p1397
tp1398
Rp1399
aa(lp1400
g547
(g551
S'\x8a\x00\x00\x00'
p1401
tp1402
Rp1403
ag547
(g551
S'w\x00\x00\x00'
p1404
tp1405
Rp1406
aa(lp1407
g547
(g551
S'\xa2\x00\x00\x00'
p1408
tp1409
Rp1410
ag547
(g551
S'u\x00\x00\x00'
p1411
tp1412
Rp1413
aa(lp1414
g547
(g551
S'\xb9\x00\x00\x00'
p1415
tp1416
Rp1417
ag547
(g551
S't\x00\x00\x00'
p1418
tp1419
Rp1420
aa(lp1421
g547
(g551
S'\xd1\x00\x00\x00'
p1422
tp1423
Rp1424
ag547
(g551
S'u\x00\x00\x00'
p1425
tp1426
Rp1427
aa(lp1428
g547
(g551
S'\xe6\x00\x00\x00'
p1429
tp1430
Rp1431
ag547
(g551
S's\x00\x00\x00'
p1432
tp1433
Rp1434
aa(lp1435
g547
(g551
S'\xff\x00\x00\x00'
p1436
tp1437
Rp1438
ag547
(g551
S't\x00\x00\x00'
p1439
tp1440
Rp1441
aa(lp1442
g547
(g551
S'\x17\x01\x00\x00'
p1443
tp1444
Rp1445
ag547
(g551
S's\x00\x00\x00'
p1446
tp1447
Rp1448
aa(lp1449
g547
(g551
S'0\x01\x00\x00'
p1450
tp1451
Rp1452
ag547
(g551
S't\x00\x00\x00'
p1453
tp1454
Rp1455
aa(lp1456
g547
(g551
S'I\x01\x00\x00'
p1457
tp1458
Rp1459
ag547
(g551
S'u\x00\x00\x00'
p1460
tp1461
Rp1462
aa(lp1463
g547
(g551
S']\x01\x00\x00'
p1464
tp1465
Rp1466
ag547
(g551
S't\x00\x00\x00'
p1467
tp1468
Rp1469
aa(lp1470
g547
(g551
S't\x01\x00\x00'
p1471
tp1472
Rp1473
ag547
(g551
S'v\x00\x00\x00'
p1474
tp1475
Rp1476
aa(lp1477
g547
(g551
S'\x8a\x01\x00\x00'
p1478
tp1479
Rp1480
ag547
(g551
S'w\x00\x00\x00'
p1481
tp1482
Rp1483
aa(lp1484
g547
(g551
S'\xa4\x01\x00\x00'
p1485
tp1486
Rp1487
ag547
(g551
S't\x00\x00\x00'
p1488
tp1489
Rp1490
aa(lp1491
g547
(g551
S'\xba\x01\x00\x00'
p1492
tp1493
Rp1494
ag547
(g551
S't\x00\x00\x00'
p1495
tp1496
Rp1497
aa(lp1498
g547
(g551
S'\xd0\x01\x00\x00'
p1499
tp1500
Rp1501
ag547
(g551
S'v\x00\x00\x00'
p1502
tp1503
Rp1504
aa(lp1505
g547
(g551
S'\xe9\x01\x00\x00'
p1506
tp1507
Rp1508
ag547
(g551
S'v\x00\x00\x00'
p1509
tp1510
Rp1511
aa(lp1512
g547
(g551
S'\xff\x01\x00\x00'
p1513
tp1514
Rp1515
ag547
(g551
S'u\x00\x00\x00'
p1516
tp1517
Rp1518
aa(lp1519
g547
(g551
S'\x01\x00\x00\x00'
p1520
tp1521
Rp1522
ag547
(g551
S'\x8b\x00\x00\x00'
p1523
tp1524
Rp1525
aa(lp1526
g547
(g551
S'\x17\x00\x00\x00'
p1527
tp1528
Rp1529
ag547
(g551
S'\x8d\x00\x00\x00'
p1530
tp1531
Rp1532
aa(lp1533
g547
(g551
S'.\x00\x00\x00'
p1534
tp1535
Rp1536
ag547
(g551
S'\x8c\x00\x00\x00'
p1537
tp1538
Rp1539
aa(lp1540
g547
(g551
S'F\x00\x00\x00'
p1541
tp1542
Rp1543
ag547
(g551
S'\x8b\x00\x00\x00'
p1544
tp1545
Rp1546
aa(lp1547
g547
(g551
S']\x00\x00\x00'
p1548
tp1549
Rp1550
ag547
(g551
S'\x8c\x00\x00\x00'
p1551
tp1552
Rp1553
aa(lp1554
g547
(g551
S't\x00\x00\x00'
p1555
tp1556
Rp1557
ag547
(g551
S'\x8b\x00\x00\x00'
p1558
tp1559
Rp1560
aa(lp1561
g547
(g551
S'\x8d\x00\x00\x00'
p1562
tp1563
Rp1564
ag547
(g551
S'\x8d\x00\x00\x00'
p1565
tp1566
Rp1567
aa(lp1568
g547
(g551
S'\xa3\x00\x00\x00'
p1569
tp1570
Rp1571
ag547
(g551
S'\x8b\x00\x00\x00'
p1572
tp1573
Rp1574
aa(lp1575
g547
(g551
S'\xbb\x00\x00\x00'
p1576
tp1577
Rp1578
ag547
(g551
S'\x8c\x00\x00\x00'
p1579
tp1580
Rp1581
aa(lp1582
g547
(g551
S'\xd3\x00\x00\x00'
p1583
tp1584
Rp1585
ag547
(g551
S'\x8c\x00\x00\x00'
p1586
tp1587
Rp1588
aa(lp1589
g547
(g551
S'\xe9\x00\x00\x00'
p1590
tp1591
Rp1592
ag547
(g551
S'\x8c\x00\x00\x00'
p1593
tp1594
Rp1595
aa(lp1596
g547
(g551
S'\x00\x01\x00\x00'
p1597
tp1598
Rp1599
ag547
(g551
S'\x8b\x00\x00\x00'
p1600
tp1601
Rp1602
aa(lp1603
g547
(g551
S'\x17\x01\x00\x00'
p1604
tp1605
Rp1606
ag547
(g551
S'\x8b\x00\x00\x00'
p1607
tp1608
Rp1609
aa(lp1610
g547
(g551
S'.\x01\x00\x00'
p1611
tp1612
Rp1613
ag547
(g551
S'\x8b\x00\x00\x00'
p1614
tp1615
Rp1616
aa(lp1617
g547
(g551
S'G\x01\x00\x00'
p1618
tp1619
Rp1620
ag547
(g551
S'\x8c\x00\x00\x00'
p1621
tp1622
Rp1623
aa(lp1624
g547
(g551
S'^\x01\x00\x00'
p1625
tp1626
Rp1627
ag547
(g551
S'\x8d\x00\x00\x00'
p1628
tp1629
Rp1630
aa(lp1631
g547
(g551
S't\x01\x00\x00'
p1632
tp1633
Rp1634
ag547
(g551
S'\x8c\x00\x00\x00'
p1635
tp1636
Rp1637
aa(lp1638
g547
(g551
S'\x8b\x01\x00\x00'
p1639
tp1640
Rp1641
ag547
(g551
S'\x8a\x00\x00\x00'
p1642
tp1643
Rp1644
aa(lp1645
g547
(g551
S'\xa3\x01\x00\x00'
p1646
tp1647
Rp1648
ag547
(g551
S'\x8c\x00\x00\x00'
p1649
tp1650
Rp1651
aa(lp1652
g547
(g551
S'\xb9\x01\x00\x00'
p1653
tp1654
Rp1655
ag547
(g551
S'\x8c\x00\x00\x00'
p1656
tp1657
Rp1658
aa(lp1659
g547
(g551
S'\xd0\x01\x00\x00'
p1660
tp1661
Rp1662
ag547
(g551
S'\x8d\x00\x00\x00'
p1663
tp1664
Rp1665
aa(lp1666
g547
(g551
S'\xe8\x01\x00\x00'
p1667
tp1668
Rp1669
ag547
(g551
S'\x8a\x00\x00\x00'
p1670
tp1671
Rp1672
aa(lp1673
g547
(g551
S'\xff\x01\x00\x00'
p1674
tp1675
Rp1676
ag547
(g551
S'\x8b\x00\x00\x00'
p1677
tp1678
Rp1679
aa(lp1680
g547
(g551
S'\x01\x00\x00\x00'
p1681
tp1682
Rp1683
ag547
(g551
S'\xa3\x00\x00\x00'
p1684
tp1685
Rp1686
aa(lp1687
g547
(g551
S'\x17\x00\x00\x00'
p1688
tp1689
Rp1690
ag547
(g551
S'\xa2\x00\x00\x00'
p1691
tp1692
Rp1693
aa(lp1694
g547
(g551
S'/\x00\x00\x00'
p1695
tp1696
Rp1697
ag547
(g551
S'\xa3\x00\x00\x00'
p1698
tp1699
Rp1700
aa(lp1701
g547
(g551
S'F\x00\x00\x00'
p1702
tp1703
Rp1704
ag547
(g551
S'\xa4\x00\x00\x00'
p1705
tp1706
Rp1707
aa(lp1708
g547
(g551
S']\x00\x00\x00'
p1709
tp1710
Rp1711
ag547
(g551
S'\xa2\x00\x00\x00'
p1712
tp1713
Rp1714
aa(lp1715
g547
(g551
S'u\x00\x00\x00'
p1716
tp1717
Rp1718
ag547
(g551
S'\xa3\x00\x00\x00'
p1719
tp1720
Rp1721
aa(lp1722
g547
(g551
S'\x8a\x00\x00\x00'
p1723
tp1724
Rp1725
ag547
(g551
S'\xa3\x00\x00\x00'
p1726
tp1727
Rp1728
aa(lp1729
g547
(g551
S'\xa1\x00\x00\x00'
p1730
tp1731
Rp1732
ag547
(g551
S'\xa3\x00\x00\x00'
p1733
tp1734
Rp1735
aa(lp1736
g547
(g551
S'\xba\x00\x00\x00'
p1737
tp1738
Rp1739
ag547
(g551
S'\xa3\x00\x00\x00'
p1740
tp1741
Rp1742
aa(lp1743
g547
(g551
S'\xd1\x00\x00\x00'
p1744
tp1745
Rp1746
ag547
(g551
S'\xa3\x00\x00\x00'
p1747
tp1748
Rp1749
aa(lp1750
g547
(g551
S'\xe9\x00\x00\x00'
p1751
tp1752
Rp1753
ag547
(g551
S'\xa4\x00\x00\x00'
p1754
tp1755
Rp1756
aa(lp1757
g547
(g551
S'\xfd\x00\x00\x00'
p1758
tp1759
Rp1760
ag547
(g551
S'\xa5\x00\x00\x00'
p1761
tp1762
Rp1763
aa(lp1764
g547
(g551
S'\x18\x01\x00\x00'
p1765
tp1766
Rp1767
ag547
(g551
S'\xa2\x00\x00\x00'
p1768
tp1769
Rp1770
aa(lp1771
g547
(g551
S'.\x01\x00\x00'
p1772
tp1773
Rp1774
ag547
(g551
S'\xa2\x00\x00\x00'
p1775
tp1776
Rp1777
aa(lp1778
g547
(g551
S'E\x01\x00\x00'
p1779
tp1780
Rp1781
ag547
(g551
S'\xa4\x00\x00\x00'
p1782
tp1783
Rp1784
aa(lp1785
g547
(g551
S']\x01\x00\x00'
p1786
tp1787
Rp1788
ag547
(g551
S'\xa3\x00\x00\x00'
p1789
tp1790
Rp1791
aa(lp1792
g547
(g551
S'u\x01\x00\x00'
p1793
tp1794
Rp1795
ag547
(g551
S'\xa3\x00\x00\x00'
p1796
tp1797
Rp1798
aa(lp1799
g547
(g551
S'\x89\x01\x00\x00'
p1800
tp1801
Rp1802
ag547
(g551
S'\xa2\x00\x00\x00'
p1803
tp1804
Rp1805
aa(lp1806
g547
(g551
S'\xa2\x01\x00\x00'
p1807
tp1808
Rp1809
ag547
(g551
S'\xa3\x00\x00\x00'
p1810
tp1811
Rp1812
aa(lp1813
g547
(g551
S'\xb9\x01\x00\x00'
p1814
tp1815
Rp1816
ag547
(g551
S'\xa2\x00\x00\x00'
p1817
tp1818
Rp1819
aa(lp1820
g547
(g551
S'\xd1\x01\x00\x00'
p1821
tp1822
Rp1823
ag547
(g551
S'\xa3\x00\x00\x00'
p1824
tp1825
Rp1826
aa(lp1827
g547
(g551
S'\xe8\x01\x00\x00'
p1828
tp1829
Rp1830
ag547
(g551
S'\xa2\x00\x00\x00'
p1831
tp1832
Rp1833
aa(lp1834
g547
(g551
S'\x00\x02\x00\x00'
p1835
tp1836
Rp1837
ag547
(g551
S'\xa3\x00\x00\x00'
p1838
tp1839
Rp1840
aa(lp1841
g547
(g551
S'\x01\x00\x00\x00'
p1842
tp1843
Rp1844
ag547
(g551
S'\xba\x00\x00\x00'
p1845
tp1846
Rp1847
aa(lp1848
g547
(g551
S'\x19\x00\x00\x00'
p1849
tp1850
Rp1851
ag547
(g551
S'\xbb\x00\x00\x00'
p1852
tp1853
Rp1854
aa(lp1855
g547
(g551
S'.\x00\x00\x00'
p1856
tp1857
Rp1858
ag547
(g551
S'\xb9\x00\x00\x00'
p1859
tp1860
Rp1861
aa(lp1862
g547
(g551
S'F\x00\x00\x00'
p1863
tp1864
Rp1865
ag547
(g551
S'\xbb\x00\x00\x00'
p1866
tp1867
Rp1868
aa(lp1869
g547
(g551
S']\x00\x00\x00'
p1870
tp1871
Rp1872
ag547
(g551
S'\xbb\x00\x00\x00'
p1873
tp1874
Rp1875
aa(lp1876
g547
(g551
S'u\x00\x00\x00'
p1877
tp1878
Rp1879
ag547
(g551
S'\xba\x00\x00\x00'
p1880
tp1881
Rp1882
aa(lp1883
g547
(g551
S'\x8a\x00\x00\x00'
p1884
tp1885
Rp1886
ag547
(g551
S'\xb9\x00\x00\x00'
p1887
tp1888
Rp1889
aa(lp1890
g547
(g551
S'\xa2\x00\x00\x00'
p1891
tp1892
Rp1893
ag547
(g551
S'\xbb\x00\x00\x00'
p1894
tp1895
Rp1896
aa(lp1897
g547
(g551
S'\xbc\x00\x00\x00'
p1898
tp1899
Rp1900
ag547
(g551
S'\xb9\x00\x00\x00'
p1901
tp1902
Rp1903
aa(lp1904
g547
(g551
S'\xd1\x00\x00\x00'
p1905
tp1906
Rp1907
ag547
(g551
S'\xba\x00\x00\x00'
p1908
tp1909
Rp1910
aa(lp1911
g547
(g551
S'\xe8\x00\x00\x00'
p1912
tp1913
Rp1914
ag547
(g551
S'\xbb\x00\x00\x00'
p1915
tp1916
Rp1917
aa(lp1918
g547
(g551
S'\xff\x00\x00\x00'
p1919
tp1920
Rp1921
ag547
(g551
S'\xba\x00\x00\x00'
p1922
tp1923
Rp1924
aa(lp1925
g547
(g551
S'\x19\x01\x00\x00'
p1926
tp1927
Rp1928
ag547
(g551
S'\xb9\x00\x00\x00'
p1929
tp1930
Rp1931
aa(lp1932
g547
(g551
S'/\x01\x00\x00'
p1933
tp1934
Rp1935
ag547
(g551
S'\xbb\x00\x00\x00'
p1936
tp1937
Rp1938
aa(lp1939
g547
(g551
S'F\x01\x00\x00'
p1940
tp1941
Rp1942
ag547
(g551
S'\xba\x00\x00\x00'
p1943
tp1944
Rp1945
aa(lp1946
g547
(g551
S'\\\x01\x00\x00'
p1947
tp1948
Rp1949
ag547
(g551
S'\xb8\x00\x00\x00'
p1950
tp1951
Rp1952
aa(lp1953
g547
(g551
S't\x01\x00\x00'
p1954
tp1955
Rp1956
ag547
(g551
S'\xba\x00\x00\x00'
p1957
tp1958
Rp1959
aa(lp1960
g547
(g551
S'\x8d\x01\x00\x00'
p1961
tp1962
Rp1963
ag547
(g551
S'\xbb\x00\x00\x00'
p1964
tp1965
Rp1966
aa(lp1967
g547
(g551
S'\xa2\x01\x00\x00'
p1968
tp1969
Rp1970
ag547
(g551
S'\xbb\x00\x00\x00'
p1971
tp1972
Rp1973
aa(lp1974
g547
(g551
S'\xba\x01\x00\x00'
p1975
tp1976
Rp1977
ag547
(g551
S'\xbc\x00\x00\x00'
p1978
tp1979
Rp1980
aa(lp1981
g547
(g551
S'\xd1\x01\x00\x00'
p1982
tp1983
Rp1984
ag547
(g551
S'\xbb\x00\x00\x00'
p1985
tp1986
Rp1987
aa(lp1988
g547
(g551
S'\xe8\x01\x00\x00'
p1989
tp1990
Rp1991
ag547
(g551
S'\xba\x00\x00\x00'
p1992
tp1993
Rp1994
aa(lp1995
g547
(g551
S'\xfe\x01\x00\x00'
p1996
tp1997
Rp1998
ag547
(g551
S'\xb9\x00\x00\x00'
p1999
tp2000
Rp2001
aa(lp2002
g547
(g551
S'\x01\x00\x00\x00'
p2003
tp2004
Rp2005
ag547
(g551
S'\xd1\x00\x00\x00'
p2006
tp2007
Rp2008
aa(lp2009
g547
(g551
S'\x18\x00\x00\x00'
p2010
tp2011
Rp2012
ag547
(g551
S'\xd3\x00\x00\x00'
p2013
tp2014
Rp2015
aa(lp2016
g547
(g551
S'.\x00\x00\x00'
p2017
tp2018
Rp2019
ag547
(g551
S'\xd1\x00\x00\x00'
p2020
tp2021
Rp2022
aa(lp2023
g547
(g551
S'F\x00\x00\x00'
p2024
tp2025
Rp2026
ag547
(g551
S'\xd2\x00\x00\x00'
p2027
tp2028
Rp2029
aa(lp2030
g547
(g551
S'^\x00\x00\x00'
p2031
tp2032
Rp2033
ag547
(g551
S'\xd3\x00\x00\x00'
p2034
tp2035
Rp2036
aa(lp2037
g547
(g551
S'v\x00\x00\x00'
p2038
tp2039
Rp2040
ag547
(g551
S'\xd2\x00\x00\x00'
p2041
tp2042
Rp2043
aa(lp2044
g547
(g551
S'\x8c\x00\x00\x00'
p2045
tp2046
Rp2047
ag547
(g551
S'\xd3\x00\x00\x00'
p2048
tp2049
Rp2050
aa(lp2051
g547
(g551
S'\xa3\x00\x00\x00'
p2052
tp2053
Rp2054
ag547
(g551
S'\xd3\x00\x00\x00'
p2055
tp2056
Rp2057
aa(lp2058
g547
(g551
S'\xb9\x00\x00\x00'
p2059
tp2060
Rp2061
ag547
(g551
S'\xd1\x00\x00\x00'
p2062
tp2063
Rp2064
aa(lp2065
g547
(g551
S'\xd0\x00\x00\x00'
p2066
tp2067
Rp2068
ag547
(g551
S'\xd3\x00\x00\x00'
p2069
tp2070
Rp2071
aa(lp2072
g547
(g551
S'\xe8\x00\x00\x00'
p2073
tp2074
Rp2075
ag547
(g551
S'\xd1\x00\x00\x00'
p2076
tp2077
Rp2078
aa(lp2079
g547
(g551
S'\x00\x01\x00\x00'
p2080
tp2081
Rp2082
ag547
(g551
S'\xd1\x00\x00\x00'
p2083
tp2084
Rp2085
aa(lp2086
g547
(g551
S'\x17\x01\x00\x00'
p2087
tp2088
Rp2089
ag547
(g551
S'\xd0\x00\x00\x00'
p2090
tp2091
Rp2092
aa(lp2093
g547
(g551
S'.\x01\x00\x00'
p2094
tp2095
Rp2096
ag547
(g551
S'\xd1\x00\x00\x00'
p2097
tp2098
Rp2099
aa(lp2100
g547
(g551
S'G\x01\x00\x00'
p2101
tp2102
Rp2103
ag547
(g551
S'\xd0\x00\x00\x00'
p2104
tp2105
Rp2106
aa(lp2107
g547
(g551
S']\x01\x00\x00'
p2108
tp2109
Rp2110
ag547
(g551
S'\xd3\x00\x00\x00'
p2111
tp2112
Rp2113
aa(lp2114
g547
(g551
S't\x01\x00\x00'
p2115
tp2116
Rp2117
ag547
(g551
S'\xd2\x00\x00\x00'
p2118
tp2119
Rp2120
aa(lp2121
g547
(g551
S'\x8c\x01\x00\x00'
p2122
tp2123
Rp2124
ag547
(g551
S'\xd3\x00\x00\x00'
p2125
tp2126
Rp2127
aa(lp2128
g547
(g551
S'\xa3\x01\x00\x00'
p2129
tp2130
Rp2131
ag547
(g551
S'\xd0\x00\x00\x00'
p2132
tp2133
Rp2134
aa(lp2135
g547
(g551
S'\xba\x01\x00\x00'
p2136
tp2137
Rp2138
ag547
(g551
S'\xd0\x00\x00\x00'
p2139
tp2140
Rp2141
aa(lp2142
g547
(g551
S'\xd0\x01\x00\x00'
p2143
tp2144
Rp2145
ag547
(g551
S'\xd0\x00\x00\x00'
p2146
tp2147
Rp2148
aa(lp2149
g547
(g551
S'\xe9\x01\x00\x00'
p2150
tp2151
Rp2152
ag547
(g551
S'\xd1\x00\x00\x00'
p2153
tp2154
Rp2155
aa(lp2156
g547
(g551
S'\xff\x01\x00\x00'
p2157
tp2158
Rp2159
ag547
(g551
S'\xd1\x00\x00\x00'
p2160
tp2161
Rp2162
aa(lp2163
g547
(g551
S'\x01\x00\x00\x00'
p2164
tp2165
Rp2166
ag547
(g551
S'\xe8\x00\x00\x00'
p2167
tp2168
Rp2169
aa(lp2170
g547
(g551
S'\x17\x00\x00\x00'
p2171
tp2172
Rp2173
ag547
(g551
S'\xe9\x00\x00\x00'
p2174
tp2175
Rp2176
aa(lp2177
g547
(g551
S'0\x00\x00\x00'
p2178
tp2179
Rp2180
ag547
(g551
S'\xea\x00\x00\x00'
p2181
tp2182
Rp2183
aa(lp2184
g547
(g551
S'D\x00\x00\x00'
p2185
tp2186
Rp2187
ag547
(g551
S'\xea\x00\x00\x00'
p2188
tp2189
Rp2190
aa(lp2191
g547
(g551
S'^\x00\x00\x00'
p2192
tp2193
Rp2194
ag547
(g551
S'\xe8\x00\x00\x00'
p2195
tp2196
Rp2197
aa(lp2198
g547
(g551
S't\x00\x00\x00'
p2199
tp2200
Rp2201
ag547
(g551
S'\xe8\x00\x00\x00'
p2202
tp2203
Rp2204
aa(lp2205
g547
(g551
S'\x8b\x00\x00\x00'
p2206
tp2207
Rp2208
ag547
(g551
S'\xeb\x00\x00\x00'
p2209
tp2210
Rp2211
aa(lp2212
g547
(g551
S'\xa3\x00\x00\x00'
p2213
tp2214
Rp2215
ag547
(g551
S'\xe8\x00\x00\x00'
p2216
tp2217
Rp2218
aa(lp2219
g547
(g551
S'\xbb\x00\x00\x00'
p2220
tp2221
Rp2222
ag547
(g551
S'\xea\x00\x00\x00'
p2223
tp2224
Rp2225
aa(lp2226
g547
(g551
S'\xd4\x00\x00\x00'
p2227
tp2228
Rp2229
ag547
(g551
S'\xe8\x00\x00\x00'
p2230
tp2231
Rp2232
aa(lp2233
g547
(g551
S'\xe6\x00\x00\x00'
p2234
tp2235
Rp2236
ag547
(g551
S'\xe8\x00\x00\x00'
p2237
tp2238
Rp2239
aa(lp2240
g547
(g551
S'\x00\x01\x00\x00'
p2241
tp2242
Rp2243
ag547
(g551
S'\xe8\x00\x00\x00'
p2244
tp2245
Rp2246
aa(lp2247
g547
(g551
S'\x18\x01\x00\x00'
p2248
tp2249
Rp2250
ag547
(g551
S'\xe9\x00\x00\x00'
p2251
tp2252
Rp2253
aa(lp2254
g547
(g551
S'-\x01\x00\x00'
p2255
tp2256
Rp2257
ag547
(g551
S'\xe8\x00\x00\x00'
p2258
tp2259
Rp2260
aa(lp2261
g547
(g551
S'E\x01\x00\x00'
p2262
tp2263
Rp2264
ag547
(g551
S'\xe7\x00\x00\x00'
p2265
tp2266
Rp2267
aa(lp2268
g547
(g551
S'\\\x01\x00\x00'
p2269
tp2270
Rp2271
ag547
(g551
S'\xe9\x00\x00\x00'
p2272
tp2273
Rp2274
aa(lp2275
g547
(g551
S'u\x01\x00\x00'
p2276
tp2277
Rp2278
ag547
(g551
S'\xe8\x00\x00\x00'
p2279
tp2280
Rp2281
aa(lp2282
g547
(g551
S'\x8c\x01\x00\x00'
p2283
tp2284
Rp2285
ag547
(g551
S'\xe9\x00\x00\x00'
p2286
tp2287
Rp2288
aa(lp2289
g547
(g551
S'\xa5\x01\x00\x00'
p2290
tp2291
Rp2292
ag547
(g551
S'\xe8\x00\x00\x00'
p2293
tp2294
Rp2295
aa(lp2296
g547
(g551
S'\xba\x01\x00\x00'
p2297
tp2298
Rp2299
ag547
(g551
S'\xe9\x00\x00\x00'
p2300
tp2301
Rp2302
aa(lp2303
g547
(g551
S'\xd1\x01\x00\x00'
p2304
tp2305
Rp2306
ag547
(g551
S'\xea\x00\x00\x00'
p2307
tp2308
Rp2309
aa(lp2310
g547
(g551
S'\xe9\x01\x00\x00'
p2311
tp2312
Rp2313
ag547
(g551
S'\xe8\x00\x00\x00'
p2314
tp2315
Rp2316
aa(lp2317
g547
(g551
S'\x00\x02\x00\x00'
p2318
tp2319
Rp2320
ag547
(g551
S'\xe9\x00\x00\x00'
p2321
tp2322
Rp2323
aa(lp2324
g547
(g551
S'\x01\x00\x00\x00'
p2325
tp2326
Rp2327
ag547
(g551
S'\x00\x01\x00\x00'
p2328
tp2329
Rp2330
aa(lp2331
g547
(g551
S'\x19\x00\x00\x00'
p2332
tp2333
Rp2334
ag547
(g551
S'\x02\x01\x00\x00'
p2335
tp2336
Rp2337
aa(lp2338
g547
(g551
S'0\x00\x00\x00'
p2339
tp2340
Rp2341
ag547
(g551
S'\x00\x01\x00\x00'
p2342
tp2343
Rp2344
aa(lp2345
g547
(g551
S'E\x00\x00\x00'
p2346
tp2347
Rp2348
ag547
(g551
S'\x00\x01\x00\x00'
p2349
tp2350
Rp2351
aa(lp2352
g547
(g551
S'_\x00\x00\x00'
p2353
tp2354
Rp2355
ag547
(g551
S'\x02\x01\x00\x00'
p2356
tp2357
Rp2358
aa(lp2359
g547
(g551
S's\x00\x00\x00'
p2360
tp2361
Rp2362
ag547
(g551
S'\x01\x01\x00\x00'
p2363
tp2364
Rp2365
aa(lp2366
g547
(g551
S'\x8c\x00\x00\x00'
p2367
tp2368
Rp2369
ag547
(g551
S'\xff\x00\x00\x00'
p2370
tp2371
Rp2372
aa(lp2373
g547
(g551
S'\xa2\x00\x00\x00'
p2374
tp2375
Rp2376
ag547
(g551
S'\x02\x01\x00\x00'
p2377
tp2378
Rp2379
aa(lp2380
g547
(g551
S'\xb9\x00\x00\x00'
p2381
tp2382
Rp2383
ag547
(g551
S'\x01\x01\x00\x00'
p2384
tp2385
Rp2386
aa(lp2387
g547
(g551
S'\xd2\x00\x00\x00'
p2388
tp2389
Rp2390
ag547
(g551
S'\x01\x01\x00\x00'
p2391
tp2392
Rp2393
aa(lp2394
g547
(g551
S'\xe7\x00\x00\x00'
p2395
tp2396
Rp2397
ag547
(g551
S'\x00\x01\x00\x00'
p2398
tp2399
Rp2400
aa(lp2401
g547
(g551
S'\x00\x01\x00\x00'
p2402
tp2403
Rp2404
ag547
(g551
S'\xff\x00\x00\x00'
p2405
tp2406
Rp2407
aa(lp2408
g547
(g551
S'\x16\x01\x00\x00'
p2409
tp2410
Rp2411
ag547
(g551
S'\x02\x01\x00\x00'
p2412
tp2413
Rp2414
aa(lp2415
g547
(g551
S'.\x01\x00\x00'
p2416
tp2417
Rp2418
ag547
(g551
S'\xfe\x00\x00\x00'
p2419
tp2420
Rp2421
aa(lp2422
g547
(g551
S'F\x01\x00\x00'
p2423
tp2424
Rp2425
ag547
(g551
S'\x01\x01\x00\x00'
p2426
tp2427
Rp2428
aa(lp2429
g547
(g551
S'\\\x01\x00\x00'
p2430
tp2431
Rp2432
ag547
(g551
S'\x01\x01\x00\x00'
p2433
tp2434
Rp2435
aa(lp2436
g547
(g551
S't\x01\x00\x00'
p2437
tp2438
Rp2439
ag547
(g551
S'\xff\x00\x00\x00'
p2440
tp2441
Rp2442
aa(lp2443
g547
(g551
S'\x8c\x01\x00\x00'
p2444
tp2445
Rp2446
ag547
(g551
S'\x00\x01\x00\x00'
p2447
tp2448
Rp2449
aa(lp2450
g547
(g551
S'\xa2\x01\x00\x00'
p2451
tp2452
Rp2453
ag547
(g551
S'\x01\x01\x00\x00'
p2454
tp2455
Rp2456
aa(lp2457
g547
(g551
S'\xb8\x01\x00\x00'
p2458
tp2459
Rp2460
ag547
(g551
S'\xff\x00\x00\x00'
p2461
tp2462
Rp2463
aa(lp2464
g547
(g551
S'\xd2\x01\x00\x00'
p2465
tp2466
Rp2467
ag547
(g551
S'\x01\x01\x00\x00'
p2468
tp2469
Rp2470
aa(lp2471
g547
(g551
S'\xe7\x01\x00\x00'
p2472
tp2473
Rp2474
ag547
(g551
S'\xfe\x00\x00\x00'
p2475
tp2476
Rp2477
aa(lp2478
g547
(g551
S'\x00\x02\x00\x00'
p2479
tp2480
Rp2481
ag547
(g551
S'\xff\x00\x00\x00'
p2482
tp2483
Rp2484
aa(lp2485
g547
(g551
S'\x01\x00\x00\x00'
p2486
tp2487
Rp2488
ag547
(g551
S'\x15\x01\x00\x00'
p2489
tp2490
Rp2491
aa(lp2492
g547
(g551
S'\x19\x00\x00\x00'
p2493
tp2494
Rp2495
ag547
(g551
S'\x16\x01\x00\x00'
p2496
tp2497
Rp2498
aa(lp2499
g547
(g551
S'0\x00\x00\x00'
p2500
tp2501
Rp2502
ag547
(g551
S'\x17\x01\x00\x00'
p2503
tp2504
Rp2505
aa(lp2506
g547
(g551
S'F\x00\x00\x00'
p2507
tp2508
Rp2509
ag547
(g551
S'\x17\x01\x00\x00'
p2510
tp2511
Rp2512
aa(lp2513
g547
(g551
S'^\x00\x00\x00'
p2514
tp2515
Rp2516
ag547
(g551
S'\x17\x01\x00\x00'
p2517
tp2518
Rp2519
aa(lp2520
g547
(g551
S'u\x00\x00\x00'
p2521
tp2522
Rp2523
ag547
(g551
S'\x18\x01\x00\x00'
p2524
tp2525
Rp2526
aa(lp2527
g547
(g551
S'\x8c\x00\x00\x00'
p2528
tp2529
Rp2530
ag547
(g551
S'\x18\x01\x00\x00'
p2531
tp2532
Rp2533
aa(lp2534
g547
(g551
S'\xa2\x00\x00\x00'
p2535
tp2536
Rp2537
ag547
(g551
S'\x17\x01\x00\x00'
p2538
tp2539
Rp2540
aa(lp2541
g547
(g551
S'\xba\x00\x00\x00'
p2542
tp2543
Rp2544
ag547
(g551
S'\x18\x01\x00\x00'
p2545
tp2546
Rp2547
aa(lp2548
g547
(g551
S'\xd2\x00\x00\x00'
p2549
tp2550
Rp2551
ag547
(g551
S'\x17\x01\x00\x00'
p2552
tp2553
Rp2554
aa(lp2555
g547
(g551
S'\xe9\x00\x00\x00'
p2556
tp2557
Rp2558
ag547
(g551
S'\x16\x01\x00\x00'
p2559
tp2560
Rp2561
aa(lp2562
g547
(g551
S'\xfe\x00\x00\x00'
p2563
tp2564
Rp2565
ag547
(g551
S'\x16\x01\x00\x00'
p2566
tp2567
Rp2568
aa(lp2569
g547
(g551
S'\x17\x01\x00\x00'
p2570
tp2571
Rp2572
ag547
(g551
S'\x17\x01\x00\x00'
p2573
tp2574
Rp2575
aa(lp2576
g547
(g551
S'.\x01\x00\x00'
p2577
tp2578
Rp2579
ag547
(g551
S'\x18\x01\x00\x00'
p2580
tp2581
Rp2582
aa(lp2583
g547
(g551
S'E\x01\x00\x00'
p2584
tp2585
Rp2586
ag547
(g551
S'\x17\x01\x00\x00'
p2587
tp2588
Rp2589
aa(lp2590
g547
(g551
S'\\\x01\x00\x00'
p2591
tp2592
Rp2593
ag547
(g551
S'\x18\x01\x00\x00'
p2594
tp2595
Rp2596
aa(lp2597
g547
(g551
S's\x01\x00\x00'
p2598
tp2599
Rp2600
ag547
(g551
S'\x16\x01\x00\x00'
p2601
tp2602
Rp2603
aa(lp2604
g547
(g551
S'\x8c\x01\x00\x00'
p2605
tp2606
Rp2607
ag547
(g551
S'\x16\x01\x00\x00'
p2608
tp2609
Rp2610
aa(lp2611
g547
(g551
S'\xa3\x01\x00\x00'
p2612
tp2613
Rp2614
ag547
(g551
S'\x15\x01\x00\x00'
p2615
tp2616
Rp2617
aa(lp2618
g547
(g551
S'\xb9\x01\x00\x00'
p2619
tp2620
Rp2621
ag547
(g551
S'\x17\x01\x00\x00'
p2622
tp2623
Rp2624
aa(lp2625
g547
(g551
S'\xd1\x01\x00\x00'
p2626
tp2627
Rp2628
ag547
(g551
S'\x18\x01\x00\x00'
p2629
tp2630
Rp2631
aa(lp2632
g547
(g551
S'\xe9\x01\x00\x00'
p2633
tp2634
Rp2635
ag547
(g551
S'\x18\x01\x00\x00'
p2636
tp2637
Rp2638
aa(lp2639
g547
(g551
S'\xff\x01\x00\x00'
p2640
tp2641
Rp2642
ag547
(g551
S'\x15\x01\x00\x00'
p2643
tp2644
Rp2645
aa(lp2646
g547
(g551
S'\x01\x00\x00\x00'
p2647
tp2648
Rp2649
ag547
(g551
S'/\x01\x00\x00'
p2650
tp2651
Rp2652
aa(lp2653
g547
(g551
S'\x19\x00\x00\x00'
p2654
tp2655
Rp2656
ag547
(g551
S'/\x01\x00\x00'
p2657
tp2658
Rp2659
aa(lp2660
g547
(g551
S'.\x00\x00\x00'
p2661
tp2662
Rp2663
ag547
(g551
S'0\x01\x00\x00'
p2664
tp2665
Rp2666
aa(lp2667
g547
(g551
S'F\x00\x00\x00'
p2668
tp2669
Rp2670
ag547
(g551
S'.\x01\x00\x00'
p2671
tp2672
Rp2673
aa(lp2674
g547
(g551
S'_\x00\x00\x00'
p2675
tp2676
Rp2677
ag547
(g551
S'/\x01\x00\x00'
p2678
tp2679
Rp2680
aa(lp2681
g547
(g551
S't\x00\x00\x00'
p2682
tp2683
Rp2684
ag547
(g551
S'.\x01\x00\x00'
p2685
tp2686
Rp2687
aa(lp2688
g547
(g551
S'\x8d\x00\x00\x00'
p2689
tp2690
Rp2691
ag547
(g551
S'0\x01\x00\x00'
p2692
tp2693
Rp2694
aa(lp2695
g547
(g551
S'\xa5\x00\x00\x00'
p2696
tp2697
Rp2698
ag547
(g551
S'.\x01\x00\x00'
p2699
tp2700
Rp2701
aa(lp2702
g547
(g551
S'\xba\x00\x00\x00'
p2703
tp2704
Rp2705
ag547
(g551
S'.\x01\x00\x00'
p2706
tp2707
Rp2708
aa(lp2709
g547
(g551
S'\xd2\x00\x00\x00'
p2710
tp2711
Rp2712
ag547
(g551
S'.\x01\x00\x00'
p2713
tp2714
Rp2715
aa(lp2716
g547
(g551
S'\xe9\x00\x00\x00'
p2717
tp2718
Rp2719
ag547
(g551
S'.\x01\x00\x00'
p2720
tp2721
Rp2722
aa(lp2723
g547
(g551
S'\x00\x01\x00\x00'
p2724
tp2725
Rp2726
ag547
(g551
S'.\x01\x00\x00'
p2727
tp2728
Rp2729
aa(lp2730
g547
(g551
S'\x16\x01\x00\x00'
p2731
tp2732
Rp2733
ag547
(g551
S'0\x01\x00\x00'
p2734
tp2735
Rp2736
aa(lp2737
g547
(g551
S'.\x01\x00\x00'
p2738
tp2739
Rp2740
ag547
(g551
S'-\x01\x00\x00'
p2741
tp2742
Rp2743
aa(lp2744
g547
(g551
S'G\x01\x00\x00'
p2745
tp2746
Rp2747
ag547
(g551
S'.\x01\x00\x00'
p2748
tp2749
Rp2750
aa(lp2751
g547
(g551
S'\\\x01\x00\x00'
p2752
tp2753
Rp2754
ag547
(g551
S'.\x01\x00\x00'
p2755
tp2756
Rp2757
aa(lp2758
g547
(g551
S't\x01\x00\x00'
p2759
tp2760
Rp2761
ag547
(g551
S'/\x01\x00\x00'
p2762
tp2763
Rp2764
aa(lp2765
g547
(g551
S'\x8d\x01\x00\x00'
p2766
tp2767
Rp2768
ag547
(g551
S'.\x01\x00\x00'
p2769
tp2770
Rp2771
aa(lp2772
g547
(g551
S'\xa1\x01\x00\x00'
p2773
tp2774
Rp2775
ag547
(g551
S',\x01\x00\x00'
p2776
tp2777
Rp2778
aa(lp2779
g547
(g551
S'\xba\x01\x00\x00'
p2780
tp2781
Rp2782
ag547
(g551
S'/\x01\x00\x00'
p2783
tp2784
Rp2785
aa(lp2786
g547
(g551
S'\xd2\x01\x00\x00'
p2787
tp2788
Rp2789
ag547
(g551
S'.\x01\x00\x00'
p2790
tp2791
Rp2792
aa(lp2793
g547
(g551
S'\xe9\x01\x00\x00'
p2794
tp2795
Rp2796
ag547
(g551
S'/\x01\x00\x00'
p2797
tp2798
Rp2799
aa(lp2800
g547
(g551
S'\x00\x02\x00\x00'
p2801
tp2802
Rp2803
ag547
(g551
S'.\x01\x00\x00'
p2804
tp2805
Rp2806
aa(lp2807
g547
(g551
S'\x01\x00\x00\x00'
p2808
tp2809
Rp2810
ag547
(g551
S'G\x01\x00\x00'
p2811
tp2812
Rp2813
aa(lp2814
g547
(g551
S'\x18\x00\x00\x00'
p2815
tp2816
Rp2817
ag547
(g551
S'E\x01\x00\x00'
p2818
tp2819
Rp2820
aa(lp2821
g547
(g551
S'.\x00\x00\x00'
p2822
tp2823
Rp2824
ag547
(g551
S'D\x01\x00\x00'
p2825
tp2826
Rp2827
aa(lp2828
g547
(g551
S'G\x00\x00\x00'
p2829
tp2830
Rp2831
ag547
(g551
S'E\x01\x00\x00'
p2832
tp2833
Rp2834
aa(lp2835
g547
(g551
S'^\x00\x00\x00'
p2836
tp2837
Rp2838
ag547
(g551
S'D\x01\x00\x00'
p2839
tp2840
Rp2841
aa(lp2842
g547
(g551
S'u\x00\x00\x00'
p2843
tp2844
Rp2845
ag547
(g551
S'D\x01\x00\x00'
p2846
tp2847
Rp2848
aa(lp2849
g547
(g551
S'\x8a\x00\x00\x00'
p2850
tp2851
Rp2852
ag547
(g551
S'H\x01\x00\x00'
p2853
tp2854
Rp2855
aa(lp2856
g547
(g551
S'\xa4\x00\x00\x00'
p2857
tp2858
Rp2859
ag547
(g551
S'F\x01\x00\x00'
p2860
tp2861
Rp2862
aa(lp2863
g547
(g551
S'\xba\x00\x00\x00'
p2864
tp2865
Rp2866
ag547
(g551
S'D\x01\x00\x00'
p2867
tp2868
Rp2869
aa(lp2870
g547
(g551
S'\xd2\x00\x00\x00'
p2871
tp2872
Rp2873
ag547
(g551
S'D\x01\x00\x00'
p2874
tp2875
Rp2876
aa(lp2877
g547
(g551
S'\xe8\x00\x00\x00'
p2878
tp2879
Rp2880
ag547
(g551
S'D\x01\x00\x00'
p2881
tp2882
Rp2883
aa(lp2884
g547
(g551
S'\x00\x01\x00\x00'
p2885
tp2886
Rp2887
ag547
(g551
S'E\x01\x00\x00'
p2888
tp2889
Rp2890
aa(lp2891
g547
(g551
S'\x17\x01\x00\x00'
p2892
tp2893
Rp2894
ag547
(g551
S'F\x01\x00\x00'
p2895
tp2896
Rp2897
aa(lp2898
g547
(g551
S'/\x01\x00\x00'
p2899
tp2900
Rp2901
ag547
(g551
S'E\x01\x00\x00'
p2902
tp2903
Rp2904
aa(lp2905
g547
(g551
S'F\x01\x00\x00'
p2906
tp2907
Rp2908
ag547
(g551
S'E\x01\x00\x00'
p2909
tp2910
Rp2911
aa(lp2912
g547
(g551
S']\x01\x00\x00'
p2913
tp2914
Rp2915
ag547
(g551
S'G\x01\x00\x00'
p2916
tp2917
Rp2918
aa(lp2919
g547
(g551
S'u\x01\x00\x00'
p2920
tp2921
Rp2922
ag547
(g551
S'E\x01\x00\x00'
p2923
tp2924
Rp2925
aa(lp2926
g547
(g551
S'\x8b\x01\x00\x00'
p2927
tp2928
Rp2929
ag547
(g551
S'G\x01\x00\x00'
p2930
tp2931
Rp2932
aa(lp2933
g547
(g551
S'\xa3\x01\x00\x00'
p2934
tp2935
Rp2936
ag547
(g551
S'H\x01\x00\x00'
p2937
tp2938
Rp2939
aa(lp2940
g547
(g551
S'\xb9\x01\x00\x00'
p2941
tp2942
Rp2943
ag547
(g551
S'F\x01\x00\x00'
p2944
tp2945
Rp2946
aa(lp2947
g547
(g551
S'\xd1\x01\x00\x00'
p2948
tp2949
Rp2950
ag547
(g551
S'D\x01\x00\x00'
p2951
tp2952
Rp2953
aa(lp2954
g547
(g551
S'\xe9\x01\x00\x00'
p2955
tp2956
Rp2957
ag547
(g551
S'H\x01\x00\x00'
p2958
tp2959
Rp2960
aa(lp2961
g547
(g551
S'\x00\x02\x00\x00'
p2962
tp2963
Rp2964
ag547
(g551
S'E\x01\x00\x00'
p2965
tp2966
Rp2967
aa(lp2968
g547
(g551
S'\x01\x00\x00\x00'
p2969
tp2970
Rp2971
ag547
(g551
S'\\\x01\x00\x00'
p2972
tp2973
Rp2974
aa(lp2975
g547
(g551
S'\x19\x00\x00\x00'
p2976
tp2977
Rp2978
ag547
(g551
S'[\x01\x00\x00'
p2979
tp2980
Rp2981
aa(lp2982
g547
(g551
S'.\x00\x00\x00'
p2983
tp2984
Rp2985
ag547
(g551
S'\\\x01\x00\x00'
p2986
tp2987
Rp2988
aa(lp2989
g547
(g551
S'G\x00\x00\x00'
p2990
tp2991
Rp2992
ag547
(g551
S'\\\x01\x00\x00'
p2993
tp2994
Rp2995
aa(lp2996
g547
(g551
S'\\\x00\x00\x00'
p2997
tp2998
Rp2999
ag547
(g551
S'\\\x01\x00\x00'
p3000
tp3001
Rp3002
aa(lp3003
g547
(g551
S't\x00\x00\x00'
p3004
tp3005
Rp3006
ag547
(g551
S']\x01\x00\x00'
p3007
tp3008
Rp3009
aa(lp3010
g547
(g551
S'\x8c\x00\x00\x00'
p3011
tp3012
Rp3013
ag547
(g551
S'^\x01\x00\x00'
p3014
tp3015
Rp3016
aa(lp3017
g547
(g551
S'\xa2\x00\x00\x00'
p3018
tp3019
Rp3020
ag547
(g551
S']\x01\x00\x00'
p3021
tp3022
Rp3023
aa(lp3024
g547
(g551
S'\xbb\x00\x00\x00'
p3025
tp3026
Rp3027
ag547
(g551
S']\x01\x00\x00'
p3028
tp3029
Rp3030
aa(lp3031
g547
(g551
S'\xd3\x00\x00\x00'
p3032
tp3033
Rp3034
ag547
(g551
S'\\\x01\x00\x00'
p3035
tp3036
Rp3037
aa(lp3038
g547
(g551
S'\xe9\x00\x00\x00'
p3039
tp3040
Rp3041
ag547
(g551
S'^\x01\x00\x00'
p3042
tp3043
Rp3044
aa(lp3045
g547
(g551
S'\x00\x01\x00\x00'
p3046
tp3047
Rp3048
ag547
(g551
S']\x01\x00\x00'
p3049
tp3050
Rp3051
aa(lp3052
g547
(g551
S'\x19\x01\x00\x00'
p3053
tp3054
Rp3055
ag547
(g551
S'\\\x01\x00\x00'
p3056
tp3057
Rp3058
aa(lp3059
g547
(g551
S',\x01\x00\x00'
p3060
tp3061
Rp3062
ag547
(g551
S'\\\x01\x00\x00'
p3063
tp3064
Rp3065
aa(lp3066
g547
(g551
S'F\x01\x00\x00'
p3067
tp3068
Rp3069
ag547
(g551
S'[\x01\x00\x00'
p3070
tp3071
Rp3072
aa(lp3073
g547
(g551
S']\x01\x00\x00'
p3074
tp3075
Rp3076
ag547
(g551
S']\x01\x00\x00'
p3077
tp3078
Rp3079
aa(lp3080
g547
(g551
S'r\x01\x00\x00'
p3081
tp3082
Rp3083
ag547
(g551
S'^\x01\x00\x00'
p3084
tp3085
Rp3086
aa(lp3087
g547
(g551
S'\x8b\x01\x00\x00'
p3088
tp3089
Rp3090
ag547
(g551
S'^\x01\x00\x00'
p3091
tp3092
Rp3093
aa(lp3094
g547
(g551
S'\xa5\x01\x00\x00'
p3095
tp3096
Rp3097
ag547
(g551
S']\x01\x00\x00'
p3098
tp3099
Rp3100
aa(lp3101
g547
(g551
S'\xb9\x01\x00\x00'
p3102
tp3103
Rp3104
ag547
(g551
S'^\x01\x00\x00'
p3105
tp3106
Rp3107
aa(lp3108
g547
(g551
S'\xd0\x01\x00\x00'
p3109
tp3110
Rp3111
ag547
(g551
S'^\x01\x00\x00'
p3112
tp3113
Rp3114
aa(lp3115
g547
(g551
S'\xe8\x01\x00\x00'
p3116
tp3117
Rp3118
ag547
(g551
S'^\x01\x00\x00'
p3119
tp3120
Rp3121
aa(lp3122
g547
(g551
S'\x00\x02\x00\x00'
p3123
tp3124
Rp3125
ag547
(g551
S'[\x01\x00\x00'
p3126
tp3127
Rp3128
aa(lp3129
g547
(g551
S'\x01\x00\x00\x00'
p3130
tp3131
Rp3132
ag547
(g551
S't\x01\x00\x00'
p3133
tp3134
Rp3135
aa(lp3136
g547
(g551
S'\x19\x00\x00\x00'
p3137
tp3138
Rp3139
ag547
(g551
S's\x01\x00\x00'
p3140
tp3141
Rp3142
aa(lp3143
g547
(g551
S'.\x00\x00\x00'
p3144
tp3145
Rp3146
ag547
(g551
S't\x01\x00\x00'
p3147
tp3148
Rp3149
aa(lp3150
g547
(g551
S'E\x00\x00\x00'
p3151
tp3152
Rp3153
ag547
(g551
S'u\x01\x00\x00'
p3154
tp3155
Rp3156
aa(lp3157
g547
(g551
S']\x00\x00\x00'
p3158
tp3159
Rp3160
ag547
(g551
S't\x01\x00\x00'
p3161
tp3162
Rp3163
aa(lp3164
g547
(g551
S'v\x00\x00\x00'
p3165
tp3166
Rp3167
ag547
(g551
S's\x01\x00\x00'
p3168
tp3169
Rp3170
aa(lp3171
g547
(g551
S'\x8d\x00\x00\x00'
p3172
tp3173
Rp3174
ag547
(g551
S's\x01\x00\x00'
p3175
tp3176
Rp3177
aa(lp3178
g547
(g551
S'\xa3\x00\x00\x00'
p3179
tp3180
Rp3181
ag547
(g551
S'u\x01\x00\x00'
p3182
tp3183
Rp3184
aa(lp3185
g547
(g551
S'\xba\x00\x00\x00'
p3186
tp3187
Rp3188
ag547
(g551
S't\x01\x00\x00'
p3189
tp3190
Rp3191
aa(lp3192
g547
(g551
S'\xd2\x00\x00\x00'
p3193
tp3194
Rp3195
ag547
(g551
S't\x01\x00\x00'
p3196
tp3197
Rp3198
aa(lp3199
g547
(g551
S'\xe8\x00\x00\x00'
p3200
tp3201
Rp3202
ag547
(g551
S'u\x01\x00\x00'
p3203
tp3204
Rp3205
aa(lp3206
g547
(g551
S'\x02\x01\x00\x00'
p3207
tp3208
Rp3209
ag547
(g551
S'v\x01\x00\x00'
p3210
tp3211
Rp3212
aa(lp3213
g547
(g551
S'\x18\x01\x00\x00'
p3214
tp3215
Rp3216
ag547
(g551
S't\x01\x00\x00'
p3217
tp3218
Rp3219
aa(lp3220
g547
(g551
S'-\x01\x00\x00'
p3221
tp3222
Rp3223
ag547
(g551
S's\x01\x00\x00'
p3224
tp3225
Rp3226
aa(lp3227
g547
(g551
S'G\x01\x00\x00'
p3228
tp3229
Rp3230
ag547
(g551
S'u\x01\x00\x00'
p3231
tp3232
Rp3233
aa(lp3234
g547
(g551
S'\\\x01\x00\x00'
p3235
tp3236
Rp3237
ag547
(g551
S'u\x01\x00\x00'
p3238
tp3239
Rp3240
aa(lp3241
g547
(g551
S'u\x01\x00\x00'
p3242
tp3243
Rp3244
ag547
(g551
S'u\x01\x00\x00'
p3245
tp3246
Rp3247
aa(lp3248
g547
(g551
S'\x8e\x01\x00\x00'
p3249
tp3250
Rp3251
ag547
(g551
S'u\x01\x00\x00'
p3252
tp3253
Rp3254
aa(lp3255
g547
(g551
S'\xa2\x01\x00\x00'
p3256
tp3257
Rp3258
ag547
(g551
S't\x01\x00\x00'
p3259
tp3260
Rp3261
aa(lp3262
g547
(g551
S'\xb8\x01\x00\x00'
p3263
tp3264
Rp3265
ag547
(g551
S'v\x01\x00\x00'
p3266
tp3267
Rp3268
aa(lp3269
g547
(g551
S'\xd1\x01\x00\x00'
p3270
tp3271
Rp3272
ag547
(g551
S'u\x01\x00\x00'
p3273
tp3274
Rp3275
aa(lp3276
g547
(g551
S'\xe8\x01\x00\x00'
p3277
tp3278
Rp3279
ag547
(g551
S'v\x01\x00\x00'
p3280
tp3281
Rp3282
aa(lp3283
g547
(g551
S'\x00\x02\x00\x00'
p3284
tp3285
Rp3286
ag547
(g551
S't\x01\x00\x00'
p3287
tp3288
Rp3289
aa(lp3290
g547
(g551
S'\x01\x00\x00\x00'
p3291
tp3292
Rp3293
ag547
(g551
S'\x8c\x01\x00\x00'
p3294
tp3295
Rp3296
aa(lp3297
g547
(g551
S'\x19\x00\x00\x00'
p3298
tp3299
Rp3300
ag547
(g551
S'\x8c\x01\x00\x00'
p3301
tp3302
Rp3303
aa(lp3304
g547
(g551
S'-\x00\x00\x00'
p3305
tp3306
Rp3307
ag547
(g551
S'\x8c\x01\x00\x00'
p3308
tp3309
Rp3310
aa(lp3311
g547
(g551
S'F\x00\x00\x00'
p3312
tp3313
Rp3314
ag547
(g551
S'\x8c\x01\x00\x00'
p3315
tp3316
Rp3317
aa(lp3318
g547
(g551
S']\x00\x00\x00'
p3319
tp3320
Rp3321
ag547
(g551
S'\x8c\x01\x00\x00'
p3322
tp3323
Rp3324
aa(lp3325
g547
(g551
S'u\x00\x00\x00'
p3326
tp3327
Rp3328
ag547
(g551
S'\x8b\x01\x00\x00'
p3329
tp3330
Rp3331
aa(lp3332
g547
(g551
S'\x8b\x00\x00\x00'
p3333
tp3334
Rp3335
ag547
(g551
S'\x8c\x01\x00\x00'
p3336
tp3337
Rp3338
aa(lp3339
g547
(g551
S'\xa3\x00\x00\x00'
p3340
tp3341
Rp3342
ag547
(g551
S'\x8c\x01\x00\x00'
p3343
tp3344
Rp3345
aa(lp3346
g547
(g551
S'\xb9\x00\x00\x00'
p3347
tp3348
Rp3349
ag547
(g551
S'\x8c\x01\x00\x00'
p3350
tp3351
Rp3352
aa(lp3353
g547
(g551
S'\xd2\x00\x00\x00'
p3354
tp3355
Rp3356
ag547
(g551
S'\x8a\x01\x00\x00'
p3357
tp3358
Rp3359
aa(lp3360
g547
(g551
S'\xea\x00\x00\x00'
p3361
tp3362
Rp3363
ag547
(g551
S'\x8c\x01\x00\x00'
p3364
tp3365
Rp3366
aa(lp3367
g547
(g551
S'\x00\x01\x00\x00'
p3368
tp3369
Rp3370
ag547
(g551
S'\x8c\x01\x00\x00'
p3371
tp3372
Rp3373
aa(lp3374
g547
(g551
S'\x16\x01\x00\x00'
p3375
tp3376
Rp3377
ag547
(g551
S'\x89\x01\x00\x00'
p3378
tp3379
Rp3380
aa(lp3381
g547
(g551
S'.\x01\x00\x00'
p3382
tp3383
Rp3384
ag547
(g551
S'\x8b\x01\x00\x00'
p3385
tp3386
Rp3387
aa(lp3388
g547
(g551
S'G\x01\x00\x00'
p3389
tp3390
Rp3391
ag547
(g551
S'\x8a\x01\x00\x00'
p3392
tp3393
Rp3394
aa(lp3395
g547
(g551
S'[\x01\x00\x00'
p3396
tp3397
Rp3398
ag547
(g551
S'\x8b\x01\x00\x00'
p3399
tp3400
Rp3401
aa(lp3402
g547
(g551
S'u\x01\x00\x00'
p3403
tp3404
Rp3405
ag547
(g551
S'\x8b\x01\x00\x00'
p3406
tp3407
Rp3408
aa(lp3409
g547
(g551
S'\x8b\x01\x00\x00'
p3410
tp3411
Rp3412
ag547
(g551
S'\x8b\x01\x00\x00'
p3413
tp3414
Rp3415
aa(lp3416
g547
(g551
S'\xa2\x01\x00\x00'
p3417
tp3418
Rp3419
ag547
(g551
S'\x8b\x01\x00\x00'
p3420
tp3421
Rp3422
aa(lp3423
g547
(g551
S'\xbb\x01\x00\x00'
p3424
tp3425
Rp3426
ag547
(g551
S'\x8b\x01\x00\x00'
p3427
tp3428
Rp3429
aa(lp3430
g547
(g551
S'\xd0\x01\x00\x00'
p3431
tp3432
Rp3433
ag547
(g551
S'\x8c\x01\x00\x00'
p3434
tp3435
Rp3436
aa(lp3437
g547
(g551
S'\xe8\x01\x00\x00'
p3438
tp3439
Rp3440
ag547
(g551
S'\x8b\x01\x00\x00'
p3441
tp3442
Rp3443
aa(lp3444
g547
(g551
S'\x00\x02\x00\x00'
p3445
tp3446
Rp3447
ag547
(g551
S'\x8a\x01\x00\x00'
p3448
tp3449
Rp3450
aa(lp3451
g547
(g551
S'\x01\x00\x00\x00'
p3452
tp3453
Rp3454
ag547
(g551
S'\xa6\x01\x00\x00'
p3455
tp3456
Rp3457
aa(lp3458
g547
(g551
S'\x19\x00\x00\x00'
p3459
tp3460
Rp3461
ag547
(g551
S'\xa3\x01\x00\x00'
p3462
tp3463
Rp3464
aa(lp3465
g547
(g551
S'/\x00\x00\x00'
p3466
tp3467
Rp3468
ag547
(g551
S'\xa5\x01\x00\x00'
p3469
tp3470
Rp3471
aa(lp3472
g547
(g551
S'E\x00\x00\x00'
p3473
tp3474
Rp3475
ag547
(g551
S'\xa1\x01\x00\x00'
p3476
tp3477
Rp3478
aa(lp3479
g547
(g551
S']\x00\x00\x00'
p3480
tp3481
Rp3482
ag547
(g551
S'\xa4\x01\x00\x00'
p3483
tp3484
Rp3485
aa(lp3486
g547
(g551
S't\x00\x00\x00'
p3487
tp3488
Rp3489
ag547
(g551
S'\xa3\x01\x00\x00'
p3490
tp3491
Rp3492
aa(lp3493
g547
(g551
S'\x8b\x00\x00\x00'
p3494
tp3495
Rp3496
ag547
(g551
S'\xa0\x01\x00\x00'
p3497
tp3498
Rp3499
aa(lp3500
g547
(g551
S'\xa4\x00\x00\x00'
p3501
tp3502
Rp3503
ag547
(g551
S'\xa2\x01\x00\x00'
p3504
tp3505
Rp3506
aa(lp3507
g547
(g551
S'\xbb\x00\x00\x00'
p3508
tp3509
Rp3510
ag547
(g551
S'\xa3\x01\x00\x00'
p3511
tp3512
Rp3513
aa(lp3514
g547
(g551
S'\xd2\x00\x00\x00'
p3515
tp3516
Rp3517
ag547
(g551
S'\xa1\x01\x00\x00'
p3518
tp3519
Rp3520
aa(lp3521
g547
(g551
S'\xe9\x00\x00\x00'
p3522
tp3523
Rp3524
ag547
(g551
S'\xa2\x01\x00\x00'
p3525
tp3526
Rp3527
aa(lp3528
g547
(g551
S'\x01\x01\x00\x00'
p3529
tp3530
Rp3531
ag547
(g551
S'\xa1\x01\x00\x00'
p3532
tp3533
Rp3534
aa(lp3535
g547
(g551
S'\x17\x01\x00\x00'
p3536
tp3537
Rp3538
ag547
(g551
S'\xa2\x01\x00\x00'
p3539
tp3540
Rp3541
aa(lp3542
g547
(g551
S'.\x01\x00\x00'
p3543
tp3544
Rp3545
ag547
(g551
S'\xa2\x01\x00\x00'
p3546
tp3547
Rp3548
aa(lp3549
g547
(g551
S'H\x01\x00\x00'
p3550
tp3551
Rp3552
ag547
(g551
S'\xa1\x01\x00\x00'
p3553
tp3554
Rp3555
aa(lp3556
g547
(g551
S'\\\x01\x00\x00'
p3557
tp3558
Rp3559
ag547
(g551
S'\xa4\x01\x00\x00'
p3560
tp3561
Rp3562
aa(lp3563
g547
(g551
S't\x01\x00\x00'
p3564
tp3565
Rp3566
ag547
(g551
S'\xa2\x01\x00\x00'
p3567
tp3568
Rp3569
aa(lp3570
g547
(g551
S'\x8c\x01\x00\x00'
p3571
tp3572
Rp3573
ag547
(g551
S'\xa1\x01\x00\x00'
p3574
tp3575
Rp3576
aa(lp3577
g547
(g551
S'\xa3\x01\x00\x00'
p3578
tp3579
Rp3580
ag547
(g551
S'\xa3\x01\x00\x00'
p3581
tp3582
Rp3583
aa(lp3584
g547
(g551
S'\xbb\x01\x00\x00'
p3585
tp3586
Rp3587
ag547
(g551
S'\xa1\x01\x00\x00'
p3588
tp3589
Rp3590
aa(lp3591
g547
(g551
S'\xd1\x01\x00\x00'
p3592
tp3593
Rp3594
ag547
(g551
S'\xa1\x01\x00\x00'
p3595
tp3596
Rp3597
aa(lp3598
g547
(g551
S'\xe9\x01\x00\x00'
p3599
tp3600
Rp3601
ag547
(g551
S'\xa4\x01\x00\x00'
p3602
tp3603
Rp3604
aa(lp3605
g547
(g551
S'\x00\x02\x00\x00'
p3606
tp3607
Rp3608
ag547
(g551
S'\xa2\x01\x00\x00'
p3609
tp3610
Rp3611
aa(lp3612
g547
(g551
S'\x01\x00\x00\x00'
p3613
tp3614
Rp3615
ag547
(g551
S'\xba\x01\x00\x00'
p3616
tp3617
Rp3618
aa(lp3619
g547
(g551
S'\x18\x00\x00\x00'
p3620
tp3621
Rp3622
ag547
(g551
S'\xb9\x01\x00\x00'
p3623
tp3624
Rp3625
aa(lp3626
g547
(g551
S'/\x00\x00\x00'
p3627
tp3628
Rp3629
ag547
(g551
S'\xb9\x01\x00\x00'
p3630
tp3631
Rp3632
aa(lp3633
g547
(g551
S'E\x00\x00\x00'
p3634
tp3635
Rp3636
ag547
(g551
S'\xb9\x01\x00\x00'
p3637
tp3638
Rp3639
aa(lp3640
g547
(g551
S'^\x00\x00\x00'
p3641
tp3642
Rp3643
ag547
(g551
S'\xbb\x01\x00\x00'
p3644
tp3645
Rp3646
aa(lp3647
g547
(g551
S'u\x00\x00\x00'
p3648
tp3649
Rp3650
ag547
(g551
S'\xbb\x01\x00\x00'
p3651
tp3652
Rp3653
aa(lp3654
g547
(g551
S'\x8b\x00\x00\x00'
p3655
tp3656
Rp3657
ag547
(g551
S'\xbb\x01\x00\x00'
p3658
tp3659
Rp3660
aa(lp3661
g547
(g551
S'\xa4\x00\x00\x00'
p3662
tp3663
Rp3664
ag547
(g551
S'\xbc\x01\x00\x00'
p3665
tp3666
Rp3667
aa(lp3668
g547
(g551
S'\xba\x00\x00\x00'
p3669
tp3670
Rp3671
ag547
(g551
S'\xba\x01\x00\x00'
p3672
tp3673
Rp3674
aa(lp3675
g547
(g551
S'\xd2\x00\x00\x00'
p3676
tp3677
Rp3678
ag547
(g551
S'\xb7\x01\x00\x00'
p3679
tp3680
Rp3681
aa(lp3682
g547
(g551
S'\xe8\x00\x00\x00'
p3683
tp3684
Rp3685
ag547
(g551
S'\xb9\x01\x00\x00'
p3686
tp3687
Rp3688
aa(lp3689
g547
(g551
S'\x01\x01\x00\x00'
p3690
tp3691
Rp3692
ag547
(g551
S'\xba\x01\x00\x00'
p3693
tp3694
Rp3695
aa(lp3696
g547
(g551
S'\x16\x01\x00\x00'
p3697
tp3698
Rp3699
ag547
(g551
S'\xba\x01\x00\x00'
p3700
tp3701
Rp3702
aa(lp3703
g547
(g551
S'0\x01\x00\x00'
p3704
tp3705
Rp3706
ag547
(g551
S'\xbb\x01\x00\x00'
p3707
tp3708
Rp3709
aa(lp3710
g547
(g551
S'D\x01\x00\x00'
p3711
tp3712
Rp3713
ag547
(g551
S'\xbb\x01\x00\x00'
p3714
tp3715
Rp3716
aa(lp3717
g547
(g551
S'\\\x01\x00\x00'
p3718
tp3719
Rp3720
ag547
(g551
S'\xbd\x01\x00\x00'
p3721
tp3722
Rp3723
aa(lp3724
g547
(g551
S'u\x01\x00\x00'
p3725
tp3726
Rp3727
ag547
(g551
S'\xbc\x01\x00\x00'
p3728
tp3729
Rp3730
aa(lp3731
g547
(g551
S'\x8b\x01\x00\x00'
p3732
tp3733
Rp3734
ag547
(g551
S'\xba\x01\x00\x00'
p3735
tp3736
Rp3737
aa(lp3738
g547
(g551
S'\xa3\x01\x00\x00'
p3739
tp3740
Rp3741
ag547
(g551
S'\xba\x01\x00\x00'
p3742
tp3743
Rp3744
aa(lp3745
g547
(g551
S'\xb9\x01\x00\x00'
p3746
tp3747
Rp3748
ag547
(g551
S'\xba\x01\x00\x00'
p3749
tp3750
Rp3751
aa(lp3752
g547
(g551
S'\xd1\x01\x00\x00'
p3753
tp3754
Rp3755
ag547
(g551
S'\xbb\x01\x00\x00'
p3756
tp3757
Rp3758
aa(lp3759
g547
(g551
S'\xe9\x01\x00\x00'
p3760
tp3761
Rp3762
ag547
(g551
S'\xba\x01\x00\x00'
p3763
tp3764
Rp3765
aa(lp3766
g547
(g551
S'\xff\x01\x00\x00'
p3767
tp3768
Rp3769
ag547
(g551
S'\xb8\x01\x00\x00'
p3770
tp3771
Rp3772
aa(lp3773
g547
(g551
S'\x01\x00\x00\x00'
p3774
tp3775
Rp3776
ag547
(g551
S'\xd0\x01\x00\x00'
p3777
tp3778
Rp3779
aa(lp3780
g547
(g551
S'\x18\x00\x00\x00'
p3781
tp3782
Rp3783
ag547
(g551
S'\xd2\x01\x00\x00'
p3784
tp3785
Rp3786
aa(lp3787
g547
(g551
S'.\x00\x00\x00'
p3788
tp3789
Rp3790
ag547
(g551
S'\xd0\x01\x00\x00'
p3791
tp3792
Rp3793
aa(lp3794
g547
(g551
S'F\x00\x00\x00'
p3795
tp3796
Rp3797
ag547
(g551
S'\xd1\x01\x00\x00'
p3798
tp3799
Rp3800
aa(lp3801
g547
(g551
S'^\x00\x00\x00'
p3802
tp3803
Rp3804
ag547
(g551
S'\xd3\x01\x00\x00'
p3805
tp3806
Rp3807
aa(lp3808
g547
(g551
S's\x00\x00\x00'
p3809
tp3810
Rp3811
ag547
(g551
S'\xd1\x01\x00\x00'
p3812
tp3813
Rp3814
aa(lp3815
g547
(g551
S'\x8c\x00\x00\x00'
p3816
tp3817
Rp3818
ag547
(g551
S'\xd1\x01\x00\x00'
p3819
tp3820
Rp3821
aa(lp3822
g547
(g551
S'\xa4\x00\x00\x00'
p3823
tp3824
Rp3825
ag547
(g551
S'\xd2\x01\x00\x00'
p3826
tp3827
Rp3828
aa(lp3829
g547
(g551
S'\xba\x00\x00\x00'
p3830
tp3831
Rp3832
ag547
(g551
S'\xd1\x01\x00\x00'
p3833
tp3834
Rp3835
aa(lp3836
g547
(g551
S'\xd1\x00\x00\x00'
p3837
tp3838
Rp3839
ag547
(g551
S'\xd1\x01\x00\x00'
p3840
tp3841
Rp3842
aa(lp3843
g547
(g551
S'\xe7\x00\x00\x00'
p3844
tp3845
Rp3846
ag547
(g551
S'\xd1\x01\x00\x00'
p3847
tp3848
Rp3849
aa(lp3850
g547
(g551
S'\x03\x01\x00\x00'
p3851
tp3852
Rp3853
ag547
(g551
S'\xd1\x01\x00\x00'
p3854
tp3855
Rp3856
aa(lp3857
g547
(g551
S'\x16\x01\x00\x00'
p3858
tp3859
Rp3860
ag547
(g551
S'\xd1\x01\x00\x00'
p3861
tp3862
Rp3863
aa(lp3864
g547
(g551
S'.\x01\x00\x00'
p3865
tp3866
Rp3867
ag547
(g551
S'\xd2\x01\x00\x00'
p3868
tp3869
Rp3870
aa(lp3871
g547
(g551
S'E\x01\x00\x00'
p3872
tp3873
Rp3874
ag547
(g551
S'\xd0\x01\x00\x00'
p3875
tp3876
Rp3877
aa(lp3878
g547
(g551
S'^\x01\x00\x00'
p3879
tp3880
Rp3881
ag547
(g551
S'\xcf\x01\x00\x00'
p3882
tp3883
Rp3884
aa(lp3885
g547
(g551
S't\x01\x00\x00'
p3886
tp3887
Rp3888
ag547
(g551
S'\xd1\x01\x00\x00'
p3889
tp3890
Rp3891
aa(lp3892
g547
(g551
S'\x8d\x01\x00\x00'
p3893
tp3894
Rp3895
ag547
(g551
S'\xd2\x01\x00\x00'
p3896
tp3897
Rp3898
aa(lp3899
g547
(g551
S'\xa2\x01\x00\x00'
p3900
tp3901
Rp3902
ag547
(g551
S'\xd1\x01\x00\x00'
p3903
tp3904
Rp3905
aa(lp3906
g547
(g551
S'\xba\x01\x00\x00'
p3907
tp3908
Rp3909
ag547
(g551
S'\xd2\x01\x00\x00'
p3910
tp3911
Rp3912
aa(lp3913
g547
(g551
S'\xd2\x01\x00\x00'
p3914
tp3915
Rp3916
ag547
(g551
S'\xd0\x01\x00\x00'
p3917
tp3918
Rp3919
aa(lp3920
g547
(g551
S'\xe7\x01\x00\x00'
p3921
tp3922
Rp3923
ag547
(g551
S'\xd0\x01\x00\x00'
p3924
tp3925
Rp3926
aa(lp3927
g547
(g551
S'\x00\x02\x00\x00'
p3928
tp3929
Rp3930
ag547
(g551
S'\xd1\x01\x00\x00'
p3931
tp3932
Rp3933
aa(lp3934
g547
(g551
S'\x01\x00\x00\x00'
p3935
tp3936
Rp3937
ag547
(g551
S'\xea\x01\x00\x00'
p3938
tp3939
Rp3940
aa(lp3941
g547
(g551
S'\x17\x00\x00\x00'
p3942
tp3943
Rp3944
ag547
(g551
S'\xe9\x01\x00\x00'
p3945
tp3946
Rp3947
aa(lp3948
g547
(g551
S'.\x00\x00\x00'
p3949
tp3950
Rp3951
ag547
(g551
S'\xe9\x01\x00\x00'
p3952
tp3953
Rp3954
aa(lp3955
g547
(g551
S'D\x00\x00\x00'
p3956
tp3957
Rp3958
ag547
(g551
S'\xe7\x01\x00\x00'
p3959
tp3960
Rp3961
aa(lp3962
g547
(g551
S'\\\x00\x00\x00'
p3963
tp3964
Rp3965
ag547
(g551
S'\xe9\x01\x00\x00'
p3966
tp3967
Rp3968
aa(lp3969
g547
(g551
S't\x00\x00\x00'
p3970
tp3971
Rp3972
ag547
(g551
S'\xe8\x01\x00\x00'
p3973
tp3974
Rp3975
aa(lp3976
g547
(g551
S'\x8d\x00\x00\x00'
p3977
tp3978
Rp3979
ag547
(g551
S'\xe8\x01\x00\x00'
p3980
tp3981
Rp3982
aa(lp3983
g547
(g551
S'\xa3\x00\x00\x00'
p3984
tp3985
Rp3986
ag547
(g551
S'\xea\x01\x00\x00'
p3987
tp3988
Rp3989
aa(lp3990
g547
(g551
S'\xbb\x00\x00\x00'
p3991
tp3992
Rp3993
ag547
(g551
S'\xe9\x01\x00\x00'
p3994
tp3995
Rp3996
aa(lp3997
g547
(g551
S'\xd1\x00\x00\x00'
p3998
tp3999
Rp4000
ag547
(g551
S'\xe9\x01\x00\x00'
p4001
tp4002
Rp4003
aa(lp4004
g547
(g551
S'\xea\x00\x00\x00'
p4005
tp4006
Rp4007
ag547
(g551
S'\xe8\x01\x00\x00'
p4008
tp4009
Rp4010
aa(lp4011
g547
(g551
S'\x00\x01\x00\x00'
p4012
tp4013
Rp4014
ag547
(g551
S'\xe8\x01\x00\x00'
p4015
tp4016
Rp4017
aa(lp4018
g547
(g551
S'\x16\x01\x00\x00'
p4019
tp4020
Rp4021
ag547
(g551
S'\xe8\x01\x00\x00'
p4022
tp4023
Rp4024
aa(lp4025
g547
(g551
S'/\x01\x00\x00'
p4026
tp4027
Rp4028
ag547
(g551
S'\xe8\x01\x00\x00'
p4029
tp4030
Rp4031
aa(lp4032
g547
(g551
S'F\x01\x00\x00'
p4033
tp4034
Rp4035
ag547
(g551
S'\xe8\x01\x00\x00'
p4036
tp4037
Rp4038
aa(lp4039
g547
(g551
S']\x01\x00\x00'
p4040
tp4041
Rp4042
ag547
(g551
S'\xe8\x01\x00\x00'
p4043
tp4044
Rp4045
aa(lp4046
g547
(g551
S't\x01\x00\x00'
p4047
tp4048
Rp4049
ag547
(g551
S'\xe8\x01\x00\x00'
p4050
tp4051
Rp4052
aa(lp4053
g547
(g551
S'\x8d\x01\x00\x00'
p4054
tp4055
Rp4056
ag547
(g551
S'\xe8\x01\x00\x00'
p4057
tp4058
Rp4059
aa(lp4060
g547
(g551
S'\xa3\x01\x00\x00'
p4061
tp4062
Rp4063
ag547
(g551
S'\xe8\x01\x00\x00'
p4064
tp4065
Rp4066
aa(lp4067
g547
(g551
S'\xbb\x01\x00\x00'
p4068
tp4069
Rp4070
ag547
(g551
S'\xe8\x01\x00\x00'
p4071
tp4072
Rp4073
aa(lp4074
g547
(g551
S'\xd1\x01\x00\x00'
p4075
tp4076
Rp4077
ag547
(g551
S'\xe8\x01\x00\x00'
p4078
tp4079
Rp4080
aa(lp4081
g547
(g551
S'\xe9\x01\x00\x00'
p4082
tp4083
Rp4084
ag547
(g551
S'\xe8\x01\x00\x00'
p4085
tp4086
Rp4087
aa(lp4088
g547
(g551
S'\x00\x02\x00\x00'
p4089
tp4090
Rp4091
ag547
(g551
S'\xe8\x01\x00\x00'
p4092
tp4093
Rp4094
aa(lp4095
g547
(g551
S'\x01\x00\x00\x00'
p4096
tp4097
Rp4098
ag547
(g551
S'\xfe\x01\x00\x00'
p4099
tp4100
Rp4101
aa(lp4102
g547
(g551
S'\x18\x00\x00\x00'
p4103
tp4104
Rp4105
ag547
(g551
S'\xff\x01\x00\x00'
p4106
tp4107
Rp4108
aa(lp4109
g547
(g551
S'0\x00\x00\x00'
p4110
tp4111
Rp4112
ag547
(g551
S'\x00\x02\x00\x00'
p4113
tp4114
Rp4115
aa(lp4116
g547
(g551
S'G\x00\x00\x00'
p4117
tp4118
Rp4119
ag547
(g551
S'\xff\x01\x00\x00'
p4120
tp4121
Rp4122
aa(lp4123
g547
(g551
S'^\x00\x00\x00'
p4124
tp4125
Rp4126
ag547
(g551
S'\xff\x01\x00\x00'
p4127
tp4128
Rp4129
aa(lp4130
g547
(g551
S'v\x00\x00\x00'
p4131
tp4132
Rp4133
ag547
(g551
S'\xfe\x01\x00\x00'
p4134
tp4135
Rp4136
aa(lp4137
g547
(g551
S'\x8b\x00\x00\x00'
p4138
tp4139
Rp4140
ag547
(g551
S'\xfe\x01\x00\x00'
p4141
tp4142
Rp4143
aa(lp4144
g547
(g551
S'\xa4\x00\x00\x00'
p4145
tp4146
Rp4147
ag547
(g551
S'\x00\x02\x00\x00'
p4148
tp4149
Rp4150
aa(lp4151
g547
(g551
S'\xba\x00\x00\x00'
p4152
tp4153
Rp4154
ag547
(g551
S'\xfe\x01\x00\x00'
p4155
tp4156
Rp4157
aa(lp4158
g547
(g551
S'\xd1\x00\x00\x00'
p4159
tp4160
Rp4161
ag547
(g551
S'\xff\x01\x00\x00'
p4162
tp4163
Rp4164
aa(lp4165
g547
(g551
S'\xea\x00\x00\x00'
p4166
tp4167
Rp4168
ag547
(g551
S'\xfe\x01\x00\x00'
p4169
tp4170
Rp4171
aa(lp4172
g547
(g551
S'\x00\x01\x00\x00'
p4173
tp4174
Rp4175
ag547
(g551
S'\x00\x02\x00\x00'
p4176
tp4177
Rp4178
aa(lp4179
g547
(g551
S'\x18\x01\x00\x00'
p4180
tp4181
Rp4182
ag547
(g551
S'\x00\x02\x00\x00'
p4183
tp4184
Rp4185
aa(lp4186
g547
(g551
S'.\x01\x00\x00'
p4187
tp4188
Rp4189
ag547
(g551
S'\x00\x02\x00\x00'
p4190
tp4191
Rp4192
aa(lp4193
g547
(g551
S'E\x01\x00\x00'
p4194
tp4195
Rp4196
ag547
(g551
S'\xfe\x01\x00\x00'
p4197
tp4198
Rp4199
aa(lp4200
g547
(g551
S'\\\x01\x00\x00'
p4201
tp4202
Rp4203
ag547
(g551
S'\x00\x02\x00\x00'
p4204
tp4205
Rp4206
aa(lp4207
g547
(g551
S's\x01\x00\x00'
p4208
tp4209
Rp4210
ag547
(g551
S'\x00\x02\x00\x00'
p4211
tp4212
Rp4213
aa(lp4214
g547
(g551
S'\x8c\x01\x00\x00'
p4215
tp4216
Rp4217
ag547
(g551
S'\xff\x01\x00\x00'
p4218
tp4219
Rp4220
aa(lp4221
g547
(g551
S'\xa2\x01\x00\x00'
p4222
tp4223
Rp4224
ag547
(g551
S'\x00\x02\x00\x00'
p4225
tp4226
Rp4227
aa(lp4228
g547
(g551
S'\xbb\x01\x00\x00'
p4229
tp4230
Rp4231
ag547
(g551
S'\x00\x02\x00\x00'
p4232
tp4233
Rp4234
aa(lp4235
g547
(g551
S'\xd1\x01\x00\x00'
p4236
tp4237
Rp4238
ag547
(g551
S'\xff\x01\x00\x00'
p4239
tp4240
Rp4241
aa(lp4242
g547
(g551
S'\xe9\x01\x00\x00'
p4243
tp4244
Rp4245
ag547
(g551
S'\xff\x01\x00\x00'
p4246
tp4247
Rp4248
aa(lp4249
g547
(g551
S'\x00\x02\x00\x00'
p4250
tp4251
Rp4252
ag547
(g551
S'\x00\x02\x00\x00'
p4253
tp4254
Rp4255
aasS'units'
p4256
S'seconds'
p4257
sS'identifier'
p4258
S'matmult2'
p4259
sS'os'
p4260
S'CYGWIN_NT-6.1-1.7.32-0.274-5-3-x86_64-64bit'
p4261
s.