(dp0
S'results'
p1
(lp2
(lp3
F1.868e-05
aa(lp4
F2.98e-06
aa(lp5
F1.935e-05
aa(lp6
F1.78e-06
aa(lp7
F1.159e-05
aa(lp8
F1.83e-06
aa(lp9
F1.941e-05
aa(lp10
F1.894e-05
aa(lp11
F1.785e-05
aa(lp12
F1.975e-05
aa(lp13
F1.182e-05
aa(lp14
F5.04e-06
aa(lp15
F5.71e-06
aa(lp16
F1.066e-05
aa(lp17
F1.494e-05
aa(lp18
F1.284e-05
aa(lp19
F1.821e-05
aa(lp20
F1.927e-05
aa(lp21
F3.37e-06
aa(lp22
F5.72e-06
aa(lp23
F8.66e-06
aa(lp24
F3.22e-06
aa(lp25
F9.66e-06
aa(lp26
F1.512e-05
aa(lp27
F5.26e-06
aa(lp28
F2.402e-05
aa(lp29
F1.581e-05
aa(lp30
F2.137e-05
aa(lp31
F2.39e-06
aa(lp32
F5.39e-06
aa(lp33
F2.66e-06
aa(lp34
F9.64e-06
aa(lp35
F2.225e-05
aa(lp36
F1.659e-05
aa(lp37
F4.49e-06
aa(lp38
F3.89e-06
aa(lp39
F8.67e-06
aa(lp40
F1.444e-05
aa(lp41
F2.388e-05
aa(lp42
F1.518e-05
aa(lp43
F2.384e-05
aa(lp44
F1.785e-05
aa(lp45
F5.76e-06
aa(lp46
F1.437e-05
aa(lp47
F6.87e-06
aa(lp48
F7.43e-06
aa(lp49
F6.33e-06
aa(lp50
F7.86e-06
aa(lp51
F1.74e-05
aa(lp52
F2.477e-05
aa(lp53
F1.718e-05
aa(lp54
F1.123e-05
aa(lp55
F1.095e-05
aa(lp56
F1.889e-05
aa(lp57
F1.575e-05
aa(lp58
F2.52e-06
aa(lp59
F2.234e-05
aa(lp60
F2.486e-05
aa(lp61
F2.188e-05
aa(lp62
F2.349e-05
aa(lp63
F9.9e-07
aa(lp64
F2.111e-05
aa(lp65
F1.478e-05
aa(lp66
F1.117e-05
aa(lp67
F1.545e-05
aa(lp68
F1.87e-05
aa(lp69
F1.292e-05
aa(lp70
F1.464e-05
aa(lp71
F7.49e-06
aa(lp72
F1.167e-05
aa(lp73
F2.25e-05
aa(lp74
F4.63e-06
aa(lp75
F1.71e-05
aa(lp76
F1.175e-05
aa(lp77
F7.64e-06
aa(lp78
F1.3e-06
aa(lp79
F9.2e-06
aa(lp80
F1.121e-05
aa(lp81
F2.373e-05
aa(lp82
F1.62e-06
aa(lp83
F1.118e-05
aa(lp84
F6.69e-06
aa(lp85
F7.91e-06
aa(lp86
F2.278e-05
aa(lp87
F4.91e-06
aa(lp88
F2.218e-05
aa(lp89
F2.229e-05
aa(lp90
F3.4e-07
aa(lp91
F1.859e-05
aa(lp92
F7.48e-06
aa(lp93
F5.2e-06
aa(lp94
F1.85e-06
aa(lp95
F5.1e-07
aa(lp96
F1.804e-05
aa(lp97
F4.43e-06
aa(lp98
F1.7e-07
aa(lp99
F5.84e-06
aa(lp100
F1.336e-05
aa(lp101
F1.103e-05
aa(lp102
F2.239e-05
aa(lp103
F7.24e-06
aa(lp104
F2.27e-05
aa(lp105
F6.81e-06
aa(lp106
F1.409e-05
aa(lp107
F1.894e-05
aa(lp108
F7.16e-06
aa(lp109
F2.421e-05
aa(lp110
F1.574e-05
aa(lp111
F1.563e-05
aa(lp112
F5.77e-06
aa(lp113
F5.07e-06
aa(lp114
F1.879e-05
aa(lp115
F1.459e-05
aa(lp116
F2.093e-05
aa(lp117
F1.337e-05
aa(lp118
F9.33e-06
aa(lp119
F1.015e-05
aa(lp120
F5.87e-06
aa(lp121
F1.988e-05
aa(lp122
F1.96e-06
aa(lp123
F8.89e-06
aa(lp124
F1.84e-05
aa(lp125
F4.8e-07
aa(lp126
F1.294e-05
aa(lp127
F9.69e-06
aa(lp128
F7.28e-06
aa(lp129
F2.085e-05
aa(lp130
F2.343e-05
aa(lp131
F1.289e-05
aa(lp132
F1.978e-05
aa(lp133
F1.686e-05
aa(lp134
F1.41e-05
aa(lp135
F8.59e-06
aa(lp136
F1.472e-05
aa(lp137
F1.34e-05
aa(lp138
F1.118e-05
aa(lp139
F1.41e-06
aa(lp140
F1.572e-05
aa(lp141
F1.204e-05
aa(lp142
F7.54e-06
aa(lp143
F8.8e-06
aa(lp144
F1.115e-05
aa(lp145
F8.2e-06
aa(lp146
F9.28e-06
aa(lp147
F2.075e-05
aa(lp148
F3.46e-06
aa(lp149
F1.275e-05
aa(lp150
F1.199e-05
aa(lp151
F2.211e-05
aa(lp152
F2.179e-05
aa(lp153
F6.21e-06
aa(lp154
F2.214e-05
aa(lp155
F1.4e-06
aa(lp156
F2.22e-06
aa(lp157
F1.741e-05
aa(lp158
F1.928e-05
aa(lp159
F1.142e-05
aa(lp160
F1.257e-05
aa(lp161
F2.48e-06
aa(lp162
F1.891e-05
aa(lp163
F1.609e-05
aa(lp164
F8.83e-06
aa(lp165
F1.386e-05
aa(lp166
F1.082e-05
aa(lp167
F9.63e-06
aa(lp168
F4.77e-06
aa(lp169
F2.88e-06
aa(lp170
F1.263e-05
aa(lp171
F4.34e-06
aa(lp172
F1.989e-05
aa(lp173
F1.512e-05
aa(lp174
F6.39e-06
aa(lp175
F5.65e-06
aa(lp176
F1.243e-05
aa(lp177
F1.07e-06
aa(lp178
F3.87e-06
aa(lp179
F1.167e-05
aa(lp180
F1.999e-05
aa(lp181
F4.24e-06
aa(lp182
F1.12e-05
aa(lp183
F2.334e-05
aa(lp184
F1.56e-05
aa(lp185
F1.398e-05
aa(lp186
F1.477e-05
aa(lp187
F1.594e-05
aa(lp188
F9.86e-06
aa(lp189
F1.523e-05
aa(lp190
F2.25e-05
aa(lp191
F1.65e-06
aa(lp192
F1.631e-05
aa(lp193
F3.39e-06
aa(lp194
F2.147e-05
aa(lp195
F1.438e-05
aa(lp196
F2.221e-05
aa(lp197
F1.053e-05
aa(lp198
F1.545e-05
aa(lp199
F2.156e-05
aa(lp200
F5.48e-06
aa(lp201
F1.324e-05
aa(lp202
F1.391e-05
aasS'month'
p203
I11
sS'argument tags'
p204
(lp205
S'N'
p206
aS'-'
p207
asS'year'
p208
I2014
sS'arch'
p209
S'x86_64'
p210
sS'day'
p211
I18
sS'result tags'
p212
(lp213
S'Run Time'
p214
asS'arguments'
p215
(lp216
(lp217
I3052
aI3052
aa(lp218
I487
aI487
aa(lp219
I3159
aI3159
aa(lp220
I296
aI296
aa(lp221
I1914
aI1914
aa(lp222
I301
aI301
aa(lp223
I3163
aI3163
aa(lp224
I3098
aI3098
aa(lp225
I2942
aI2942
aa(lp226
I3255
aI3255
aa(lp227
I1938
aI1938
aa(lp228
I824
aI824
aa(lp229
I949
aI949
aa(lp230
I1746
aI1746
aa(lp231
I2426
aI2426
aa(lp232
I2132
aI2132
aa(lp233
I2980
aI2980
aa(lp234
I3148
aI3148
aa(lp235
I554
aI554
aa(lp236
I936
aI936
aa(lp237
I1431
aI1431
aa(lp238
I528
aI528
aa(lp239
I1607
aI1607
aa(lp240
I2495
aI2495
aa(lp241
I863
aI863
aa(lp242
I3950
aI3950
aa(lp243
I2629
aI2629
aa(lp244
I3534
aI3534
aa(lp245
I391
aI391
aa(lp246
I866
aI866
aa(lp247
I430
aI430
aa(lp248
I1599
aI1599
aa(lp249
I3602
aI3602
aa(lp250
I2719
aI2719
aa(lp251
I739
aI739
aa(lp252
I655
aI655
aa(lp253
I1418
aI1418
aa(lp254
I2379
aI2379
aa(lp255
I3882
aI3882
aa(lp256
I2466
aI2466
aa(lp257
I3985
aI3985
aa(lp258
I2953
aI2953
aa(lp259
I944
aI944
aa(lp260
I2382
aI2382
aa(lp261
I1126
aI1126
aa(lp262
I1231
aI1231
aa(lp263
I1027
aI1027
aa(lp264
I1304
aI1304
aa(lp265
I2843
aI2843
aa(lp266
I4033
aI4033
aa(lp267
I2838
aI2838
aa(lp268
I1760
aI1760
aa(lp269
I1788
aI1788
aa(lp270
I3087
aI3087
aa(lp271
I2589
aI2589
aa(lp272
I411
aI411
aa(lp273
I3699
aI3699
aa(lp274
I4066
aI4066
aa(lp275
I3669
aI3669
aa(lp276
I3850
aI3850
aa(lp277
I161
aI161
aa(lp278
I3466
aI3466
aa(lp279
I2407
aI2407
aa(lp280
I1823
aI1823
aa(lp281
I2536
aI2536
aa(lp282
I3060
aI3060
aa(lp283
I2124
aI2124
aa(lp284
I2427
aI2427
aa(lp285
I1226
aI1226
aa(lp286
I1965
aI1965
aa(lp287
I3670
aI3670
aa(lp288
I742
aI742
aa(lp289
I2779
aI2779
aa(lp290
I1910
aI1910
aa(lp291
I1235
aI1235
aa(lp292
I211
aI211
aa(lp293
I1519
aI1519
aa(lp294
I1861
aI1861
aa(lp295
I3888
aI3888
aa(lp296
I271
aI271
aa(lp297
I1820
aI1820
aa(lp298
I1106
aI1106
aa(lp299
I1287
aI1287
aa(lp300
I3787
aI3787
aa(lp301
I821
aI821
aa(lp302
I3624
aI3624
aa(lp303
I3665
aI3665
aa(lp304
I56
aI56
aa(lp305
I3038
aI3038
aa(lp306
I1221
aI1221
aa(lp307
I869
aI869
aa(lp308
I304
aI304
aa(lp309
I85
aI85
aa(lp310
I3013
aI3013
aa(lp311
I732
aI732
aa(lp312
I28
aI28
aa(lp313
I954
aI954
aa(lp314
I2216
aI2216
aa(lp315
I1808
aI1808
aa(lp316
I3712
aI3712
aa(lp317
I1174
aI1174
aa(lp318
I3751
aI3751
aa(lp319
I1118
aI1118
aa(lp320
I2322
aI2322
aa(lp321
I3113
aI3113
aa(lp322
I1175
aI1175
aa(lp323
I3979
aI3979
aa(lp324
I2590
aI2590
aa(lp325
I2563
aI2563
aa(lp326
I950
aI950
aa(lp327
I835
aI835
aa(lp328
I3135
aI3135
aa(lp329
I2340
aI2340
aa(lp330
I3444
aI3444
aa(lp331
I2201
aI2201
aa(lp332
I1517
aI1517
aa(lp333
I1670
aI1670
aa(lp334
I965
aI965
aa(lp335
I3248
aI3248
aa(lp336
I324
aI324
aa(lp337
I1481
aI1481
aa(lp338
I3037
aI3037
aa(lp339
I79
aI79
aa(lp340
I2149
aI2149
aa(lp341
I1586
aI1586
aa(lp342
I1195
aI1195
aa(lp343
I3465
aI3465
aa(lp344
I3863
aI3863
aa(lp345
I2129
aI2129
aa(lp346
I3244
aI3244
aa(lp347
I2761
aI2761
aa(lp348
I2348
aI2348
aa(lp349
I1419
aI1419
aa(lp350
I2437
aI2437
aa(lp351
I2198
aI2198
aa(lp352
I1828
aI1828
aa(lp353
I234
aI234
aa(lp354
I2598
aI2598
aa(lp355
I1980
aI1980
aa(lp356
I1240
aI1240
aa(lp357
I1436
aI1436
aa(lp358
I1826
aI1826
aa(lp359
I1333
aI1333
aa(lp360
I1515
aI1515
aa(lp361
I3394
aI3394
aa(lp362
I572
aI572
aa(lp363
I2095
aI2095
aa(lp364
I1963
aI1963
aa(lp365
I3611
aI3611
aa(lp366
I3593
aI3593
aa(lp367
I1029
aI1029
aa(lp368
I3648
aI3648
aa(lp369
I233
aI233
aa(lp370
I368
aI368
aa(lp371
I2880
aI2880
aa(lp372
I3169
aI3169
aa(lp373
I1912
aI1912
aa(lp374
I2035
aI2035
aa(lp375
I407
aI407
aa(lp376
I3071
aI3071
aa(lp377
I2627
aI2627
aa(lp378
I1442
aI1442
aa(lp379
I2264
aI2264
aa(lp380
I1768
aI1768
aa(lp381
I1574
aI1574
aa(lp382
I775
aI775
aa(lp383
I471
aI471
aa(lp384
I2071
aI2071
aa(lp385
I713
aI713
aa(lp386
I3247
aI3247
aa(lp387
I2484
aI2484
aa(lp388
I1042
aI1042
aa(lp389
I929
aI929
aa(lp390
I2022
aI2022
aa(lp391
I176
aI176
aa(lp392
I624
aI624
aa(lp393
I1933
aI1933
aa(lp394
I3298
aI3298
aa(lp395
I691
aI691
aa(lp396
I1864
aI1864
aa(lp397
I3799
aI3799
aa(lp398
I2581
aI2581
aa(lp399
I2329
aI2329
aa(lp400
I2415
aI2415
aa(lp401
I2615
aI2615
aa(lp402
I1614
aI1614
aa(lp403
I2508
aI2508
aa(lp404
I3686
aI3686
aa(lp405
I277
aI277
aa(lp406
I2666
aI2666
aa(lp407
I559
aI559
aa(lp408
I3547
aI3547
aa(lp409
I2314
aI2314
aa(lp410
I3696
aI3696
aa(lp411
I1714
aI1714
aa(lp412
I2545
aI2545
aa(lp413
I3565
aI3565
aa(lp414
I900
aI900
aa(lp415
I2167
aI2167
aa(lp416
I2287
aI2287
aasS'units'
p417
S'seconds'
p418
sS'identifier'
p419
S'tilera-dot-product'
p420
sS'os'
p421
S'CYGWIN_NT-6.1-1.7.32-0.274-5-3-x86_64-64bit'
p422
s.